ARM GAS  C:\Users\user\AppData\Local\Temp\ccGnldFX.s 			page 1


   1              		.cpu cortex-m3
   2              		.eabi_attribute 20, 1
   3              		.eabi_attribute 21, 1
   4              		.eabi_attribute 23, 3
   5              		.eabi_attribute 24, 1
   6              		.eabi_attribute 25, 1
   7              		.eabi_attribute 26, 1
   8              		.eabi_attribute 30, 1
   9              		.eabi_attribute 34, 1
  10              		.eabi_attribute 18, 4
  11              		.file	"DallasTemperature.c"
  12              		.text
  13              	.Ltext0:
  14              		.cfi_sections	.debug_frame
  15              		.section	.text.DeactivateExternalPullup,"ax",%progbits
  16              		.align	1
  17              		.arch armv7-m
  18              		.syntax unified
  19              		.thumb
  20              		.thumb_func
  21              		.fpu softvfp
  23              	DeactivateExternalPullup:
  24              	.LVL0:
  25              	.LFB67:
  26              		.file 1 "Core/Src/DallasTemperature.c"
   1:Core/Src/DallasTemperature.c **** /*
   2:Core/Src/DallasTemperature.c ****  * DallasTemperature.c
   3:Core/Src/DallasTemperature.c ****  *
   4:Core/Src/DallasTemperature.c ****  *  Created on: Dec 24, 2020
   5:Core/Src/DallasTemperature.c ****  *      Author: tabur
   6:Core/Src/DallasTemperature.c ****  */
   7:Core/Src/DallasTemperature.c **** #include "DallasTemperature.h"
   8:Core/Src/DallasTemperature.c **** 
   9:Core/Src/DallasTemperature.c **** // OneWire commands
  10:Core/Src/DallasTemperature.c **** #define STARTCONVO      0x44  // Tells device to take a temperature reading and put it on the scrat
  11:Core/Src/DallasTemperature.c **** #define COPYSCRATCH     0x48  // Copy scratchpad to EEPROM
  12:Core/Src/DallasTemperature.c **** #define READSCRATCH     0xBE  // Read from scratchpad
  13:Core/Src/DallasTemperature.c **** #define WRITESCRATCH    0x4E  // Write to scratchpad
  14:Core/Src/DallasTemperature.c **** #define RECALLSCRATCH   0xB8  // Recall from EEPROM to scratchpad
  15:Core/Src/DallasTemperature.c **** #define READPOWERSUPPLY 0xB4  // Determine if device needs parasite power
  16:Core/Src/DallasTemperature.c **** #define ALARMSEARCH     0xEC  // Query bus for devices with an alarm condition
  17:Core/Src/DallasTemperature.c **** 
  18:Core/Src/DallasTemperature.c **** // Scratchpad locations
  19:Core/Src/DallasTemperature.c **** #define TEMP_LSB        0
  20:Core/Src/DallasTemperature.c **** #define TEMP_MSB        1
  21:Core/Src/DallasTemperature.c **** #define HIGH_ALARM_TEMP 2
  22:Core/Src/DallasTemperature.c **** #define LOW_ALARM_TEMP  3
  23:Core/Src/DallasTemperature.c **** #define CONFIGURATION   4
  24:Core/Src/DallasTemperature.c **** #define INTERNAL_BYTE   5
  25:Core/Src/DallasTemperature.c **** #define COUNT_REMAIN    6
  26:Core/Src/DallasTemperature.c **** #define COUNT_PER_C     7
  27:Core/Src/DallasTemperature.c **** #define SCRATCHPAD_CRC  8
  28:Core/Src/DallasTemperature.c **** 
  29:Core/Src/DallasTemperature.c **** // DSROM FIELDS
  30:Core/Src/DallasTemperature.c **** #define DSROM_FAMILY    0
  31:Core/Src/DallasTemperature.c **** #define DSROM_CRC       7
  32:Core/Src/DallasTemperature.c **** 
ARM GAS  C:\Users\user\AppData\Local\Temp\ccGnldFX.s 			page 2


  33:Core/Src/DallasTemperature.c **** // Device resolution
  34:Core/Src/DallasTemperature.c **** #define TEMP_9_BIT  0x1F //  9 bit
  35:Core/Src/DallasTemperature.c **** #define TEMP_10_BIT 0x3F // 10 bit
  36:Core/Src/DallasTemperature.c **** #define TEMP_11_BIT 0x5F // 11 bit
  37:Core/Src/DallasTemperature.c **** #define TEMP_12_BIT 0x7F // 12 bit
  38:Core/Src/DallasTemperature.c **** 
  39:Core/Src/DallasTemperature.c **** #define MAX_CONVERSION_TIMEOUT		750
  40:Core/Src/DallasTemperature.c **** 
  41:Core/Src/DallasTemperature.c **** static void BlockTillConversionComplete(DallasTemperature_HandleTypeDef* dt, uint8_t bitResolution)
  42:Core/Src/DallasTemperature.c **** static void ActivateExternalPullup(DallasTemperature_HandleTypeDef* dt);
  43:Core/Src/DallasTemperature.c **** static void DeactivateExternalPullup(DallasTemperature_HandleTypeDef* dt);
  44:Core/Src/DallasTemperature.c **** //static bool IsAllZeros(const uint8_t * const scratchPad, const size_t length);
  45:Core/Src/DallasTemperature.c **** 
  46:Core/Src/DallasTemperature.c **** // Continue to check if the IC has responded with a temperature
  47:Core/Src/DallasTemperature.c **** static void BlockTillConversionComplete(DallasTemperature_HandleTypeDef* dt, uint8_t bitResolution)
  48:Core/Src/DallasTemperature.c **** {
  49:Core/Src/DallasTemperature.c **** 	int delms = DT_MillisToWaitForConversion(bitResolution);
  50:Core/Src/DallasTemperature.c **** 
  51:Core/Src/DallasTemperature.c **** 	if (dt->checkForConversion && !dt->parasite)
  52:Core/Src/DallasTemperature.c **** 	{
  53:Core/Src/DallasTemperature.c **** 		unsigned long now = HAL_GetTick();
  54:Core/Src/DallasTemperature.c **** 		while (!DT_IsConversionComplete(dt) && (HAL_GetTick() - delms < now))
  55:Core/Src/DallasTemperature.c **** 		{
  56:Core/Src/DallasTemperature.c **** 			__NOP();
  57:Core/Src/DallasTemperature.c **** 		}
  58:Core/Src/DallasTemperature.c **** 	}
  59:Core/Src/DallasTemperature.c **** 	else
  60:Core/Src/DallasTemperature.c **** 	{
  61:Core/Src/DallasTemperature.c **** 		ActivateExternalPullup(dt);
  62:Core/Src/DallasTemperature.c **** 		HAL_Delay(delms);
  63:Core/Src/DallasTemperature.c **** 		DeactivateExternalPullup(dt);
  64:Core/Src/DallasTemperature.c **** 	}
  65:Core/Src/DallasTemperature.c **** }
  66:Core/Src/DallasTemperature.c **** 
  67:Core/Src/DallasTemperature.c **** static void ActivateExternalPullup(DallasTemperature_HandleTypeDef* dt)
  68:Core/Src/DallasTemperature.c **** {
  69:Core/Src/DallasTemperature.c **** 	if(dt->useExternalPullup)
  70:Core/Src/DallasTemperature.c **** 	{
  71:Core/Src/DallasTemperature.c **** 		HAL_GPIO_WritePin(GPIOC, GPIO_PIN_10, GPIO_PIN_RESET);
  72:Core/Src/DallasTemperature.c **** 	}
  73:Core/Src/DallasTemperature.c **** }
  74:Core/Src/DallasTemperature.c **** 
  75:Core/Src/DallasTemperature.c **** static void DeactivateExternalPullup(DallasTemperature_HandleTypeDef* dt)
  76:Core/Src/DallasTemperature.c **** {
  27              		.loc 1 76 1 view -0
  28              		.cfi_startproc
  29              		@ args = 0, pretend = 0, frame = 0
  30              		@ frame_needed = 0, uses_anonymous_args = 0
  31              		.loc 1 76 1 is_stmt 0 view .LVU1
  32 0000 08B5     		push	{r3, lr}
  33              		.cfi_def_cfa_offset 8
  34              		.cfi_offset 3, -8
  35              		.cfi_offset 14, -4
  77:Core/Src/DallasTemperature.c **** 	if(dt->useExternalPullup)
  36              		.loc 1 77 2 is_stmt 1 view .LVU2
  37              		.loc 1 77 7 is_stmt 0 view .LVU3
  38 0002 C379     		ldrb	r3, [r0, #7]	@ zero_extendqisi2
ARM GAS  C:\Users\user\AppData\Local\Temp\ccGnldFX.s 			page 3


  39              		.loc 1 77 4 view .LVU4
  40 0004 03B9     		cbnz	r3, .L4
  41              	.LVL1:
  42              	.L1:
  78:Core/Src/DallasTemperature.c **** 	{
  79:Core/Src/DallasTemperature.c **** 		HAL_GPIO_WritePin(GPIOC, GPIO_PIN_10, GPIO_PIN_SET);
  80:Core/Src/DallasTemperature.c **** 	}
  81:Core/Src/DallasTemperature.c **** }
  43              		.loc 1 81 1 view .LVU5
  44 0006 08BD     		pop	{r3, pc}
  45              	.LVL2:
  46              	.L4:
  79:Core/Src/DallasTemperature.c **** 	}
  47              		.loc 1 79 3 is_stmt 1 view .LVU6
  48 0008 0122     		movs	r2, #1
  49 000a 4FF48061 		mov	r1, #1024
  50 000e 0248     		ldr	r0, .L5
  51              	.LVL3:
  79:Core/Src/DallasTemperature.c **** 	}
  52              		.loc 1 79 3 is_stmt 0 view .LVU7
  53 0010 FFF7FEFF 		bl	HAL_GPIO_WritePin
  54              	.LVL4:
  55              		.loc 1 81 1 view .LVU8
  56 0014 F7E7     		b	.L1
  57              	.L6:
  58 0016 00BF     		.align	2
  59              	.L5:
  60 0018 00100140 		.word	1073811456
  61              		.cfi_endproc
  62              	.LFE67:
  64              		.section	.text.ActivateExternalPullup,"ax",%progbits
  65              		.align	1
  66              		.syntax unified
  67              		.thumb
  68              		.thumb_func
  69              		.fpu softvfp
  71              	ActivateExternalPullup:
  72              	.LVL5:
  73              	.LFB66:
  68:Core/Src/DallasTemperature.c **** 	if(dt->useExternalPullup)
  74              		.loc 1 68 1 is_stmt 1 view -0
  75              		.cfi_startproc
  76              		@ args = 0, pretend = 0, frame = 0
  77              		@ frame_needed = 0, uses_anonymous_args = 0
  68:Core/Src/DallasTemperature.c **** 	if(dt->useExternalPullup)
  78              		.loc 1 68 1 is_stmt 0 view .LVU10
  79 0000 08B5     		push	{r3, lr}
  80              		.cfi_def_cfa_offset 8
  81              		.cfi_offset 3, -8
  82              		.cfi_offset 14, -4
  69:Core/Src/DallasTemperature.c **** 	{
  83              		.loc 1 69 2 is_stmt 1 view .LVU11
  69:Core/Src/DallasTemperature.c **** 	{
  84              		.loc 1 69 7 is_stmt 0 view .LVU12
  85 0002 C379     		ldrb	r3, [r0, #7]	@ zero_extendqisi2
  69:Core/Src/DallasTemperature.c **** 	{
  86              		.loc 1 69 4 view .LVU13
ARM GAS  C:\Users\user\AppData\Local\Temp\ccGnldFX.s 			page 4


  87 0004 03B9     		cbnz	r3, .L10
  88              	.LVL6:
  89              	.L7:
  73:Core/Src/DallasTemperature.c **** 
  90              		.loc 1 73 1 view .LVU14
  91 0006 08BD     		pop	{r3, pc}
  92              	.LVL7:
  93              	.L10:
  71:Core/Src/DallasTemperature.c **** 	}
  94              		.loc 1 71 3 is_stmt 1 view .LVU15
  95 0008 0022     		movs	r2, #0
  96 000a 4FF48061 		mov	r1, #1024
  97 000e 0248     		ldr	r0, .L11
  98              	.LVL8:
  71:Core/Src/DallasTemperature.c **** 	}
  99              		.loc 1 71 3 is_stmt 0 view .LVU16
 100 0010 FFF7FEFF 		bl	HAL_GPIO_WritePin
 101              	.LVL9:
  73:Core/Src/DallasTemperature.c **** 
 102              		.loc 1 73 1 view .LVU17
 103 0014 F7E7     		b	.L7
 104              	.L12:
 105 0016 00BF     		.align	2
 106              	.L11:
 107 0018 00100140 		.word	1073811456
 108              		.cfi_endproc
 109              	.LFE66:
 111              		.section	.text.DT_SetPullupPin,"ax",%progbits
 112              		.align	1
 113              		.global	DT_SetPullupPin
 114              		.syntax unified
 115              		.thumb
 116              		.thumb_func
 117              		.fpu softvfp
 119              	DT_SetPullupPin:
 120              	.LVL10:
 121              	.LFB68:
  82:Core/Src/DallasTemperature.c **** 
  83:Core/Src/DallasTemperature.c **** // Returns true if all bytes of scratchPad are '\0'
  84:Core/Src/DallasTemperature.c **** //static bool IsAllZeros(const uint8_t * const scratchPad, const size_t length)
  85:Core/Src/DallasTemperature.c **** //{
  86:Core/Src/DallasTemperature.c **** //	for (size_t i = 0; i < length; i++)
  87:Core/Src/DallasTemperature.c **** //	{
  88:Core/Src/DallasTemperature.c **** //		if (scratchPad[i] != 0)
  89:Core/Src/DallasTemperature.c **** //		{
  90:Core/Src/DallasTemperature.c **** //			return false;
  91:Core/Src/DallasTemperature.c **** //		}
  92:Core/Src/DallasTemperature.c **** //	}
  93:Core/Src/DallasTemperature.c **** //
  94:Core/Src/DallasTemperature.c **** //	return true;
  95:Core/Src/DallasTemperature.c **** //}
  96:Core/Src/DallasTemperature.c **** 
  97:Core/Src/DallasTemperature.c **** void DT_SetPullupPin(DallasTemperature_HandleTypeDef* dt, GPIO_TypeDef* port, uint32_t pin)
  98:Core/Src/DallasTemperature.c **** {
 122              		.loc 1 98 1 is_stmt 1 view -0
 123              		.cfi_startproc
 124              		@ args = 0, pretend = 0, frame = 16
ARM GAS  C:\Users\user\AppData\Local\Temp\ccGnldFX.s 			page 5


 125              		@ frame_needed = 0, uses_anonymous_args = 0
 126              		.loc 1 98 1 is_stmt 0 view .LVU19
 127 0000 10B5     		push	{r4, lr}
 128              		.cfi_def_cfa_offset 8
 129              		.cfi_offset 4, -8
 130              		.cfi_offset 14, -4
 131 0002 84B0     		sub	sp, sp, #16
 132              		.cfi_def_cfa_offset 24
 133 0004 0446     		mov	r4, r0
 134 0006 0846     		mov	r0, r1
 135              	.LVL11:
  99:Core/Src/DallasTemperature.c **** 	dt->useExternalPullup = true;
 136              		.loc 1 99 2 is_stmt 1 view .LVU20
 137              		.loc 1 99 24 is_stmt 0 view .LVU21
 138 0008 0123     		movs	r3, #1
 139 000a E371     		strb	r3, [r4, #7]
 100:Core/Src/DallasTemperature.c **** 
 101:Core/Src/DallasTemperature.c **** 	/*Configure GPIO pin : ONE_WIRE_Pin */
 102:Core/Src/DallasTemperature.c **** 	GPIO_InitTypeDef GPIO_InitStruct = {0};
 140              		.loc 1 102 2 is_stmt 1 view .LVU22
 141              		.loc 1 102 19 is_stmt 0 view .LVU23
 142 000c 0021     		movs	r1, #0
 143              	.LVL12:
 144              		.loc 1 102 19 view .LVU24
 145 000e 0091     		str	r1, [sp]
 146 0010 0191     		str	r1, [sp, #4]
 147 0012 0291     		str	r1, [sp, #8]
 148 0014 0391     		str	r1, [sp, #12]
 103:Core/Src/DallasTemperature.c **** 	GPIO_InitStruct.Pin = pin;
 149              		.loc 1 103 2 is_stmt 1 view .LVU25
 150              		.loc 1 103 22 is_stmt 0 view .LVU26
 151 0016 0092     		str	r2, [sp]
 104:Core/Src/DallasTemperature.c **** 	GPIO_InitStruct.Mode = GPIO_MODE_OUTPUT_PP;
 152              		.loc 1 104 2 is_stmt 1 view .LVU27
 153              		.loc 1 104 23 is_stmt 0 view .LVU28
 154 0018 0193     		str	r3, [sp, #4]
 105:Core/Src/DallasTemperature.c **** 	GPIO_InitStruct.Pull = GPIO_PULLUP;
 155              		.loc 1 105 2 is_stmt 1 view .LVU29
 156              		.loc 1 105 23 is_stmt 0 view .LVU30
 157 001a 0293     		str	r3, [sp, #8]
 106:Core/Src/DallasTemperature.c **** 	GPIO_InitStruct.Speed = GPIO_SPEED_FREQ_MEDIUM;
 158              		.loc 1 106 2 is_stmt 1 view .LVU31
 159              		.loc 1 106 24 is_stmt 0 view .LVU32
 160 001c 0393     		str	r3, [sp, #12]
 107:Core/Src/DallasTemperature.c **** 	HAL_GPIO_Init(port, &GPIO_InitStruct);
 161              		.loc 1 107 2 is_stmt 1 view .LVU33
 162 001e 6946     		mov	r1, sp
 163 0020 FFF7FEFF 		bl	HAL_GPIO_Init
 164              	.LVL13:
 108:Core/Src/DallasTemperature.c **** 
 109:Core/Src/DallasTemperature.c **** 	DeactivateExternalPullup(dt);
 165              		.loc 1 109 2 view .LVU34
 166 0024 2046     		mov	r0, r4
 167 0026 FFF7FEFF 		bl	DeactivateExternalPullup
 168              	.LVL14:
 110:Core/Src/DallasTemperature.c **** }
 169              		.loc 1 110 1 is_stmt 0 view .LVU35
ARM GAS  C:\Users\user\AppData\Local\Temp\ccGnldFX.s 			page 6


 170 002a 04B0     		add	sp, sp, #16
 171              		.cfi_def_cfa_offset 8
 172              		@ sp needed
 173 002c 10BD     		pop	{r4, pc}
 174              		.loc 1 110 1 view .LVU36
 175              		.cfi_endproc
 176              	.LFE68:
 178              		.section	.text.DT_SetOneWire,"ax",%progbits
 179              		.align	1
 180              		.global	DT_SetOneWire
 181              		.syntax unified
 182              		.thumb
 183              		.thumb_func
 184              		.fpu softvfp
 186              	DT_SetOneWire:
 187              	.LVL15:
 188              	.LFB69:
 111:Core/Src/DallasTemperature.c **** 
 112:Core/Src/DallasTemperature.c **** void DT_SetOneWire(DallasTemperature_HandleTypeDef* dt, OneWire_HandleTypeDef* ow)
 113:Core/Src/DallasTemperature.c **** {
 189              		.loc 1 113 1 is_stmt 1 view -0
 190              		.cfi_startproc
 191              		@ args = 0, pretend = 0, frame = 0
 192              		@ frame_needed = 0, uses_anonymous_args = 0
 193              		@ link register save eliminated.
 114:Core/Src/DallasTemperature.c **** 	dt->ow 					= ow;
 194              		.loc 1 114 2 view .LVU38
 195              		.loc 1 114 14 is_stmt 0 view .LVU39
 196 0000 0160     		str	r1, [r0]
 115:Core/Src/DallasTemperature.c **** 	dt->devices 			= 0;
 197              		.loc 1 115 2 is_stmt 1 view .LVU40
 198              		.loc 1 115 17 is_stmt 0 view .LVU41
 199 0002 0023     		movs	r3, #0
 200 0004 0371     		strb	r3, [r0, #4]
 116:Core/Src/DallasTemperature.c **** 	dt->ds18Count 			= 0;
 201              		.loc 1 116 2 is_stmt 1 view .LVU42
 202              		.loc 1 116 19 is_stmt 0 view .LVU43
 203 0006 4371     		strb	r3, [r0, #5]
 117:Core/Src/DallasTemperature.c **** 	dt->parasite 			= false;
 204              		.loc 1 117 2 is_stmt 1 view .LVU44
 205              		.loc 1 117 18 is_stmt 0 view .LVU45
 206 0008 8371     		strb	r3, [r0, #6]
 118:Core/Src/DallasTemperature.c **** 	dt->bitResolution 		= 9;
 207              		.loc 1 118 2 is_stmt 1 view .LVU46
 208              		.loc 1 118 22 is_stmt 0 view .LVU47
 209 000a 0922     		movs	r2, #9
 210 000c 0272     		strb	r2, [r0, #8]
 119:Core/Src/DallasTemperature.c **** 	dt->waitForConversion 	= true;
 211              		.loc 1 119 2 is_stmt 1 view .LVU48
 212              		.loc 1 119 25 is_stmt 0 view .LVU49
 213 000e 0122     		movs	r2, #1
 214 0010 4272     		strb	r2, [r0, #9]
 120:Core/Src/DallasTemperature.c **** 	dt->checkForConversion 	= true;
 215              		.loc 1 120 2 is_stmt 1 view .LVU50
 216              		.loc 1 120 26 is_stmt 0 view .LVU51
 217 0012 8272     		strb	r2, [r0, #10]
 121:Core/Src/DallasTemperature.c **** 	dt->autoSaveScratchPad 	= true;
ARM GAS  C:\Users\user\AppData\Local\Temp\ccGnldFX.s 			page 7


 218              		.loc 1 121 2 is_stmt 1 view .LVU52
 219              		.loc 1 121 26 is_stmt 0 view .LVU53
 220 0014 C272     		strb	r2, [r0, #11]
 122:Core/Src/DallasTemperature.c **** 	dt->useExternalPullup 	= false;
 221              		.loc 1 122 2 is_stmt 1 view .LVU54
 222              		.loc 1 122 25 is_stmt 0 view .LVU55
 223 0016 C371     		strb	r3, [r0, #7]
 123:Core/Src/DallasTemperature.c **** }
 224              		.loc 1 123 1 view .LVU56
 225 0018 7047     		bx	lr
 226              		.cfi_endproc
 227              	.LFE69:
 229              		.section	.text.DT_GetDeviceCount,"ax",%progbits
 230              		.align	1
 231              		.global	DT_GetDeviceCount
 232              		.syntax unified
 233              		.thumb
 234              		.thumb_func
 235              		.fpu softvfp
 237              	DT_GetDeviceCount:
 238              	.LVL16:
 239              	.LFB71:
 124:Core/Src/DallasTemperature.c **** 
 125:Core/Src/DallasTemperature.c **** void DT_Begin(DallasTemperature_HandleTypeDef* dt)
 126:Core/Src/DallasTemperature.c **** {
 127:Core/Src/DallasTemperature.c **** 	AllDeviceAddress deviceAddress;
 128:Core/Src/DallasTemperature.c **** 
 129:Core/Src/DallasTemperature.c **** 	OW_ResetSearch(dt->ow);
 130:Core/Src/DallasTemperature.c **** 	dt->devices = 0; 	// Reset the number of devices when we enumerate wire devices
 131:Core/Src/DallasTemperature.c **** 	dt->ds18Count = 0; 	// Reset number of DS18xxx Family devices
 132:Core/Src/DallasTemperature.c **** 
 133:Core/Src/DallasTemperature.c **** 	dt->devices = OW_Search(dt->ow, deviceAddress, ONEWIRE_MAX_DEVICES);
 134:Core/Src/DallasTemperature.c **** 
 135:Core/Src/DallasTemperature.c **** 	for(uint8_t i = 0; i < dt->devices; i++)
 136:Core/Src/DallasTemperature.c **** 	{
 137:Core/Src/DallasTemperature.c **** 		if (DT_ValidAddress(&deviceAddress[i * 8]))
 138:Core/Src/DallasTemperature.c **** 		{
 139:Core/Src/DallasTemperature.c **** 
 140:Core/Src/DallasTemperature.c **** 			if (!dt->parasite && DT_ReadPowerSupply(dt, &deviceAddress[i * 8]))
 141:Core/Src/DallasTemperature.c **** 				dt->parasite = true;
 142:Core/Src/DallasTemperature.c **** 
 143:Core/Src/DallasTemperature.c **** 			dt->bitResolution = max(dt->bitResolution, DT_GetResolution(dt, &deviceAddress[i * 8]));
 144:Core/Src/DallasTemperature.c **** 
 145:Core/Src/DallasTemperature.c **** 			if (DT_ValidFamily(&deviceAddress[i * 8]))
 146:Core/Src/DallasTemperature.c **** 			{
 147:Core/Src/DallasTemperature.c **** 				dt->ds18Count++;
 148:Core/Src/DallasTemperature.c **** 			}
 149:Core/Src/DallasTemperature.c **** 		}
 150:Core/Src/DallasTemperature.c **** 	}
 151:Core/Src/DallasTemperature.c **** }
 152:Core/Src/DallasTemperature.c **** 
 153:Core/Src/DallasTemperature.c **** // returns the number of devices found on the bus
 154:Core/Src/DallasTemperature.c **** uint8_t DT_GetDeviceCount(DallasTemperature_HandleTypeDef* dt)
 155:Core/Src/DallasTemperature.c **** {
 240              		.loc 1 155 1 is_stmt 1 view -0
 241              		.cfi_startproc
 242              		@ args = 0, pretend = 0, frame = 0
ARM GAS  C:\Users\user\AppData\Local\Temp\ccGnldFX.s 			page 8


 243              		@ frame_needed = 0, uses_anonymous_args = 0
 244              		@ link register save eliminated.
 156:Core/Src/DallasTemperature.c **** 	return dt->devices;
 245              		.loc 1 156 2 view .LVU58
 157:Core/Src/DallasTemperature.c **** }
 246              		.loc 1 157 1 is_stmt 0 view .LVU59
 247 0000 0079     		ldrb	r0, [r0, #4]	@ zero_extendqisi2
 248              	.LVL17:
 249              		.loc 1 157 1 view .LVU60
 250 0002 7047     		bx	lr
 251              		.cfi_endproc
 252              	.LFE71:
 254              		.section	.text.DT_GetDS18Count,"ax",%progbits
 255              		.align	1
 256              		.global	DT_GetDS18Count
 257              		.syntax unified
 258              		.thumb
 259              		.thumb_func
 260              		.fpu softvfp
 262              	DT_GetDS18Count:
 263              	.LVL18:
 264              	.LFB72:
 158:Core/Src/DallasTemperature.c **** 
 159:Core/Src/DallasTemperature.c **** uint8_t DT_GetDS18Count(DallasTemperature_HandleTypeDef* dt)
 160:Core/Src/DallasTemperature.c **** {
 265              		.loc 1 160 1 is_stmt 1 view -0
 266              		.cfi_startproc
 267              		@ args = 0, pretend = 0, frame = 0
 268              		@ frame_needed = 0, uses_anonymous_args = 0
 269              		@ link register save eliminated.
 161:Core/Src/DallasTemperature.c **** 	return dt->ds18Count;
 270              		.loc 1 161 2 view .LVU62
 162:Core/Src/DallasTemperature.c **** }
 271              		.loc 1 162 1 is_stmt 0 view .LVU63
 272 0000 4079     		ldrb	r0, [r0, #5]	@ zero_extendqisi2
 273              	.LVL19:
 274              		.loc 1 162 1 view .LVU64
 275 0002 7047     		bx	lr
 276              		.cfi_endproc
 277              	.LFE72:
 279              		.section	.text.DT_ValidAddress,"ax",%progbits
 280              		.align	1
 281              		.global	DT_ValidAddress
 282              		.syntax unified
 283              		.thumb
 284              		.thumb_func
 285              		.fpu softvfp
 287              	DT_ValidAddress:
 288              	.LVL20:
 289              	.LFB73:
 163:Core/Src/DallasTemperature.c **** 
 164:Core/Src/DallasTemperature.c **** // returns true if address is valid
 165:Core/Src/DallasTemperature.c **** bool DT_ValidAddress(const uint8_t* deviceAddress)
 166:Core/Src/DallasTemperature.c **** {
 290              		.loc 1 166 1 is_stmt 1 view -0
 291              		.cfi_startproc
 292              		@ args = 0, pretend = 0, frame = 0
ARM GAS  C:\Users\user\AppData\Local\Temp\ccGnldFX.s 			page 9


 293              		@ frame_needed = 0, uses_anonymous_args = 0
 294              		.loc 1 166 1 is_stmt 0 view .LVU66
 295 0000 10B5     		push	{r4, lr}
 296              		.cfi_def_cfa_offset 8
 297              		.cfi_offset 4, -8
 298              		.cfi_offset 14, -4
 299 0002 0446     		mov	r4, r0
 167:Core/Src/DallasTemperature.c **** 	return (OW_Crc8(deviceAddress, 7) == deviceAddress[7]);
 300              		.loc 1 167 2 is_stmt 1 view .LVU67
 301              		.loc 1 167 10 is_stmt 0 view .LVU68
 302 0004 0721     		movs	r1, #7
 303 0006 FFF7FEFF 		bl	OW_Crc8
 304              	.LVL21:
 305              		.loc 1 167 36 view .LVU69
 306 000a E379     		ldrb	r3, [r4, #7]	@ zero_extendqisi2
 168:Core/Src/DallasTemperature.c **** }
 307              		.loc 1 168 1 view .LVU70
 308 000c 8342     		cmp	r3, r0
 309 000e 14BF     		ite	ne
 310 0010 0020     		movne	r0, #0
 311 0012 0120     		moveq	r0, #1
 312 0014 10BD     		pop	{r4, pc}
 313              		.loc 1 168 1 view .LVU71
 314              		.cfi_endproc
 315              	.LFE73:
 317              		.section	.text.DT_ValidFamily,"ax",%progbits
 318              		.align	1
 319              		.global	DT_ValidFamily
 320              		.syntax unified
 321              		.thumb
 322              		.thumb_func
 323              		.fpu softvfp
 325              	DT_ValidFamily:
 326              	.LVL22:
 327              	.LFB74:
 169:Core/Src/DallasTemperature.c **** 
 170:Core/Src/DallasTemperature.c **** bool DT_ValidFamily(const uint8_t* deviceAddress)
 171:Core/Src/DallasTemperature.c **** {
 328              		.loc 1 171 1 is_stmt 1 view -0
 329              		.cfi_startproc
 330              		@ args = 0, pretend = 0, frame = 0
 331              		@ frame_needed = 0, uses_anonymous_args = 0
 332              		@ link register save eliminated.
 172:Core/Src/DallasTemperature.c **** 	switch (deviceAddress[DSROM_FAMILY])
 333              		.loc 1 172 2 view .LVU73
 334              		.loc 1 172 23 is_stmt 0 view .LVU74
 335 0000 0378     		ldrb	r3, [r0]	@ zero_extendqisi2
 336              		.loc 1 172 2 view .LVU75
 337 0002 422B     		cmp	r3, #66
 338 0004 15D8     		bhi	.L23
 339 0006 282B     		cmp	r3, #40
 340 0008 07D2     		bcs	.L22
 341 000a 102B     		cmp	r3, #16
 342 000c 13D0     		beq	.L24
 343 000e 222B     		cmp	r3, #34
 344 0010 01D0     		beq	.L26
 173:Core/Src/DallasTemperature.c **** 	{
ARM GAS  C:\Users\user\AppData\Local\Temp\ccGnldFX.s 			page 10


 174:Core/Src/DallasTemperature.c **** 	case DS18S20MODEL:
 175:Core/Src/DallasTemperature.c **** 	case DS18B20MODEL:
 176:Core/Src/DallasTemperature.c **** 	case DS1822MODEL:
 177:Core/Src/DallasTemperature.c **** 	case DS1825MODEL:
 178:Core/Src/DallasTemperature.c **** 	case DS28EA00MODEL:
 179:Core/Src/DallasTemperature.c **** 		return true;
 180:Core/Src/DallasTemperature.c **** 	default:
 181:Core/Src/DallasTemperature.c **** 		return false;
 345              		.loc 1 181 10 view .LVU76
 346 0012 0020     		movs	r0, #0
 347              	.LVL23:
 182:Core/Src/DallasTemperature.c **** 	}
 183:Core/Src/DallasTemperature.c **** }
 348              		.loc 1 183 1 view .LVU77
 349 0014 7047     		bx	lr
 350              	.LVL24:
 351              	.L26:
 172:Core/Src/DallasTemperature.c **** 	{
 352              		.loc 1 172 2 view .LVU78
 353 0016 0120     		movs	r0, #1
 354              	.LVL25:
 172:Core/Src/DallasTemperature.c **** 	{
 355              		.loc 1 172 2 view .LVU79
 356 0018 7047     		bx	lr
 357              	.LVL26:
 358              	.L22:
 172:Core/Src/DallasTemperature.c **** 	{
 359              		.loc 1 172 2 view .LVU80
 360 001a 283B     		subs	r3, r3, #40
 361 001c DBB2     		uxtb	r3, r3
 362 001e 0122     		movs	r2, #1
 363 0020 02FA03F3 		lsl	r3, r2, r3
 364 0024 02F18162 		add	r2, r2, #67633152
 365 0028 1342     		tst	r3, r2
 366 002a 14BF     		ite	ne
 367 002c 0120     		movne	r0, #1
 368              	.LVL27:
 172:Core/Src/DallasTemperature.c **** 	{
 369              		.loc 1 172 2 view .LVU81
 370 002e 0020     		moveq	r0, #0
 371 0030 7047     		bx	lr
 372              	.LVL28:
 373              	.L23:
 181:Core/Src/DallasTemperature.c **** 	}
 374              		.loc 1 181 10 view .LVU82
 375 0032 0020     		movs	r0, #0
 376              	.LVL29:
 181:Core/Src/DallasTemperature.c **** 	}
 377              		.loc 1 181 10 view .LVU83
 378 0034 7047     		bx	lr
 379              	.LVL30:
 380              	.L24:
 172:Core/Src/DallasTemperature.c **** 	{
 381              		.loc 1 172 2 view .LVU84
 382 0036 0120     		movs	r0, #1
 383              	.LVL31:
 172:Core/Src/DallasTemperature.c **** 	{
ARM GAS  C:\Users\user\AppData\Local\Temp\ccGnldFX.s 			page 11


 384              		.loc 1 172 2 view .LVU85
 385 0038 7047     		bx	lr
 386              		.cfi_endproc
 387              	.LFE74:
 389              		.section	.text.DT_GetAddress,"ax",%progbits
 390              		.align	1
 391              		.global	DT_GetAddress
 392              		.syntax unified
 393              		.thumb
 394              		.thumb_func
 395              		.fpu softvfp
 397              	DT_GetAddress:
 398              	.LVL32:
 399              	.LFB75:
 184:Core/Src/DallasTemperature.c **** 
 185:Core/Src/DallasTemperature.c **** // finds an address at a given index on the bus
 186:Core/Src/DallasTemperature.c **** // returns true if the device was found
 187:Core/Src/DallasTemperature.c **** bool DT_GetAddress(DallasTemperature_HandleTypeDef* dt, uint8_t* currentDeviceAddress, uint8_t inde
 188:Core/Src/DallasTemperature.c **** {
 400              		.loc 1 188 1 is_stmt 1 view -0
 401              		.cfi_startproc
 402              		@ args = 0, pretend = 0, frame = 40
 403              		@ frame_needed = 0, uses_anonymous_args = 0
 404              		.loc 1 188 1 is_stmt 0 view .LVU87
 405 0000 70B5     		push	{r4, r5, r6, lr}
 406              		.cfi_def_cfa_offset 16
 407              		.cfi_offset 4, -16
 408              		.cfi_offset 5, -12
 409              		.cfi_offset 6, -8
 410              		.cfi_offset 14, -4
 411 0002 8AB0     		sub	sp, sp, #40
 412              		.cfi_def_cfa_offset 56
 413 0004 0D46     		mov	r5, r1
 414 0006 1446     		mov	r4, r2
 189:Core/Src/DallasTemperature.c **** 	AllDeviceAddress deviceAddress;
 415              		.loc 1 189 2 is_stmt 1 view .LVU88
 190:Core/Src/DallasTemperature.c **** 
 191:Core/Src/DallasTemperature.c **** 	uint8_t depth = 0;
 416              		.loc 1 191 2 view .LVU89
 417              	.LVL33:
 192:Core/Src/DallasTemperature.c **** 
 193:Core/Src/DallasTemperature.c **** 	depth = OW_Search(dt->ow, deviceAddress, ONEWIRE_MAX_DEVICES);
 418              		.loc 1 193 2 view .LVU90
 419              		.loc 1 193 10 is_stmt 0 view .LVU91
 420 0008 0522     		movs	r2, #5
 421              	.LVL34:
 422              		.loc 1 193 10 view .LVU92
 423 000a 6946     		mov	r1, sp
 424              	.LVL35:
 425              		.loc 1 193 10 view .LVU93
 426 000c 0068     		ldr	r0, [r0]
 427              	.LVL36:
 428              		.loc 1 193 10 view .LVU94
 429 000e FFF7FEFF 		bl	OW_Search
 430              	.LVL37:
 194:Core/Src/DallasTemperature.c **** 
 195:Core/Src/DallasTemperature.c **** 	if(index < depth && DT_ValidAddress(&deviceAddress[index * 8]))
ARM GAS  C:\Users\user\AppData\Local\Temp\ccGnldFX.s 			page 12


 431              		.loc 1 195 2 is_stmt 1 view .LVU95
 432              		.loc 1 195 4 is_stmt 0 view .LVU96
 433 0012 A042     		cmp	r0, r4
 434 0014 02D8     		bhi	.L31
 196:Core/Src/DallasTemperature.c **** 	{
 197:Core/Src/DallasTemperature.c **** 		memcpy(currentDeviceAddress, &deviceAddress[index * 8], 8);
 198:Core/Src/DallasTemperature.c **** 		return true;
 199:Core/Src/DallasTemperature.c **** 	}
 200:Core/Src/DallasTemperature.c **** 
 201:Core/Src/DallasTemperature.c **** 	return false;
 435              		.loc 1 201 9 view .LVU97
 436 0016 0020     		movs	r0, #0
 437              	.LVL38:
 438              	.L28:
 202:Core/Src/DallasTemperature.c **** }
 439              		.loc 1 202 1 view .LVU98
 440 0018 0AB0     		add	sp, sp, #40
 441              		.cfi_remember_state
 442              		.cfi_def_cfa_offset 16
 443              		@ sp needed
 444 001a 70BD     		pop	{r4, r5, r6, pc}
 445              	.LVL39:
 446              	.L31:
 447              		.cfi_restore_state
 195:Core/Src/DallasTemperature.c **** 	{
 448              		.loc 1 195 38 discriminator 1 view .LVU99
 449 001c 0DEBC406 		add	r6, sp, r4, lsl #3
 195:Core/Src/DallasTemperature.c **** 	{
 450              		.loc 1 195 22 discriminator 1 view .LVU100
 451 0020 3046     		mov	r0, r6
 452              	.LVL40:
 195:Core/Src/DallasTemperature.c **** 	{
 453              		.loc 1 195 22 discriminator 1 view .LVU101
 454 0022 FFF7FEFF 		bl	DT_ValidAddress
 455              	.LVL41:
 195:Core/Src/DallasTemperature.c **** 	{
 456              		.loc 1 195 19 discriminator 1 view .LVU102
 457 0026 0028     		cmp	r0, #0
 458 0028 F6D0     		beq	.L28
 197:Core/Src/DallasTemperature.c **** 		return true;
 459              		.loc 1 197 3 is_stmt 1 view .LVU103
 460 002a 5DF83420 		ldr	r2, [sp, r4, lsl #3]	@ unaligned
 461 002e 7368     		ldr	r3, [r6, #4]	@ unaligned
 462 0030 2A60     		str	r2, [r5]	@ unaligned
 463 0032 6B60     		str	r3, [r5, #4]	@ unaligned
 198:Core/Src/DallasTemperature.c **** 	}
 464              		.loc 1 198 3 view .LVU104
 198:Core/Src/DallasTemperature.c **** 	}
 465              		.loc 1 198 10 is_stmt 0 view .LVU105
 466 0034 F0E7     		b	.L28
 467              		.cfi_endproc
 468              	.LFE75:
 470              		.section	.text.DT_ReadScratchPad,"ax",%progbits
 471              		.align	1
 472              		.global	DT_ReadScratchPad
 473              		.syntax unified
 474              		.thumb
ARM GAS  C:\Users\user\AppData\Local\Temp\ccGnldFX.s 			page 13


 475              		.thumb_func
 476              		.fpu softvfp
 478              	DT_ReadScratchPad:
 479              	.LVL42:
 480              	.LFB78:
 203:Core/Src/DallasTemperature.c **** 
 204:Core/Src/DallasTemperature.c **** // attempt to determine if the device at the given address is connected to the bus
 205:Core/Src/DallasTemperature.c **** bool DT_IsConnected(DallasTemperature_HandleTypeDef* dt, const uint8_t* deviceAddress)
 206:Core/Src/DallasTemperature.c **** {
 207:Core/Src/DallasTemperature.c **** 	ScratchPad scratchPad;
 208:Core/Src/DallasTemperature.c **** 	return DT_IsConnected_ScratchPad(dt, deviceAddress, scratchPad);
 209:Core/Src/DallasTemperature.c **** }
 210:Core/Src/DallasTemperature.c **** 
 211:Core/Src/DallasTemperature.c **** // attempt to determine if the device at the given address is connected to the bus
 212:Core/Src/DallasTemperature.c **** // also allows for updating the read scratchpad
 213:Core/Src/DallasTemperature.c **** bool DT_IsConnected_ScratchPad(DallasTemperature_HandleTypeDef* dt, const uint8_t* deviceAddress, u
 214:Core/Src/DallasTemperature.c **** {
 215:Core/Src/DallasTemperature.c **** 	bool b = DT_ReadScratchPad(dt, deviceAddress, scratchPad);
 216:Core/Src/DallasTemperature.c **** 	return (b /*&& IsAllZeros(scratchPad, 8)*/ && (OW_Crc8(scratchPad, 8) == scratchPad[SCRATCHPAD_CRC
 217:Core/Src/DallasTemperature.c **** }
 218:Core/Src/DallasTemperature.c **** 
 219:Core/Src/DallasTemperature.c **** bool DT_ReadScratchPad(DallasTemperature_HandleTypeDef* dt, const uint8_t* deviceAddress, uint8_t* 
 220:Core/Src/DallasTemperature.c **** {
 481              		.loc 1 220 1 is_stmt 1 view -0
 482              		.cfi_startproc
 483              		@ args = 0, pretend = 0, frame = 24
 484              		@ frame_needed = 0, uses_anonymous_args = 0
 485              		.loc 1 220 1 is_stmt 0 view .LVU107
 486 0000 F0B5     		push	{r4, r5, r6, r7, lr}
 487              		.cfi_def_cfa_offset 20
 488              		.cfi_offset 4, -20
 489              		.cfi_offset 5, -16
 490              		.cfi_offset 6, -12
 491              		.cfi_offset 7, -8
 492              		.cfi_offset 14, -4
 493 0002 89B0     		sub	sp, sp, #36
 494              		.cfi_def_cfa_offset 56
 495 0004 0446     		mov	r4, r0
 496 0006 0D46     		mov	r5, r1
 497 0008 1746     		mov	r7, r2
 221:Core/Src/DallasTemperature.c **** 	// send the reset command and fail fast
 222:Core/Src/DallasTemperature.c **** 	int b = OW_Reset(dt->ow);
 498              		.loc 1 222 2 is_stmt 1 view .LVU108
 499              		.loc 1 222 10 is_stmt 0 view .LVU109
 500 000a 0068     		ldr	r0, [r0]
 501              	.LVL43:
 502              		.loc 1 222 10 view .LVU110
 503 000c FFF7FEFF 		bl	OW_Reset
 504              	.LVL44:
 223:Core/Src/DallasTemperature.c **** 
 224:Core/Src/DallasTemperature.c **** 	if (b == 0)
 505              		.loc 1 224 2 is_stmt 1 view .LVU111
 506              		.loc 1 224 5 is_stmt 0 view .LVU112
 507 0010 10B9     		cbnz	r0, .L36
 225:Core/Src/DallasTemperature.c **** 		return false;
 508              		.loc 1 225 10 view .LVU113
 509 0012 0020     		movs	r0, #0
ARM GAS  C:\Users\user\AppData\Local\Temp\ccGnldFX.s 			page 14


 510              	.LVL45:
 511              	.L33:
 226:Core/Src/DallasTemperature.c **** 
 227:Core/Src/DallasTemperature.c **** 	uint8_t query[19]={0x55, 0, 0, 0, 0, 0, 0, 0, 0, READSCRATCH, 0xFF, 0xFF, 0xFF, 0xFF, 0xFF, 0xFF, 
 228:Core/Src/DallasTemperature.c **** 	memcpy(&query[1], deviceAddress, 8);
 229:Core/Src/DallasTemperature.c **** 
 230:Core/Src/DallasTemperature.c **** 	// Read all registers in a simple loop
 231:Core/Src/DallasTemperature.c **** 	// byte 0: temperature LSB
 232:Core/Src/DallasTemperature.c **** 	// byte 1: temperature MSB
 233:Core/Src/DallasTemperature.c **** 	// byte 2: high alarm temp
 234:Core/Src/DallasTemperature.c **** 	// byte 3: low alarm temp
 235:Core/Src/DallasTemperature.c **** 	// byte 4: DS18S20: store for crc
 236:Core/Src/DallasTemperature.c **** 	//         DS18B20 & DS1822: configuration register
 237:Core/Src/DallasTemperature.c **** 	// byte 5: internal use & crc
 238:Core/Src/DallasTemperature.c **** 	// byte 6: DS18S20: COUNT_REMAIN
 239:Core/Src/DallasTemperature.c **** 	//         DS18B20 & DS1822: store for crc
 240:Core/Src/DallasTemperature.c **** 	// byte 7: DS18S20: COUNT_PER_C
 241:Core/Src/DallasTemperature.c **** 	//         DS18B20 & DS1822: store for crc
 242:Core/Src/DallasTemperature.c **** 	// byte 8: SCRATCHPAD_CRC
 243:Core/Src/DallasTemperature.c **** 
 244:Core/Src/DallasTemperature.c **** 	b = OW_Send(dt->ow, query, 19, scratchPad, 9, 10);
 245:Core/Src/DallasTemperature.c **** 
 246:Core/Src/DallasTemperature.c **** 	return (b == OW_OK);
 247:Core/Src/DallasTemperature.c **** }
 512              		.loc 1 247 1 view .LVU114
 513 0014 09B0     		add	sp, sp, #36
 514              		.cfi_remember_state
 515              		.cfi_def_cfa_offset 20
 516              		@ sp needed
 517 0016 F0BD     		pop	{r4, r5, r6, r7, pc}
 518              	.LVL46:
 519              	.L36:
 520              		.cfi_restore_state
 227:Core/Src/DallasTemperature.c **** 	memcpy(&query[1], deviceAddress, 8);
 521              		.loc 1 227 2 is_stmt 1 view .LVU115
 227:Core/Src/DallasTemperature.c **** 	memcpy(&query[1], deviceAddress, 8);
 522              		.loc 1 227 10 is_stmt 0 view .LVU116
 523 0018 0DF10C0C 		add	ip, sp, #12
 524 001c 0F4E     		ldr	r6, .L37
 525 001e 0FCE     		ldmia	r6!, {r0, r1, r2, r3}
 526              	.LVL47:
 227:Core/Src/DallasTemperature.c **** 	memcpy(&query[1], deviceAddress, 8);
 527              		.loc 1 227 10 view .LVU117
 528 0020 ACE80F00 		stmia	ip!, {r0, r1, r2, r3}
 529 0024 3168     		ldr	r1, [r6]
 530 0026 2CF8021B 		strh	r1, [ip], #2	@ movhi
 531 002a 090C     		lsrs	r1, r1, #16
 532 002c 8CF80010 		strb	r1, [ip]
 228:Core/Src/DallasTemperature.c **** 
 533              		.loc 1 228 2 is_stmt 1 view .LVU118
 534 0030 2A68     		ldr	r2, [r5]	@ unaligned
 535 0032 6B68     		ldr	r3, [r5, #4]	@ unaligned
 536 0034 CDF80D20 		str	r2, [sp, #13]	@ unaligned
 537 0038 CDF81130 		str	r3, [sp, #17]	@ unaligned
 244:Core/Src/DallasTemperature.c **** 
 538              		.loc 1 244 2 view .LVU119
 244:Core/Src/DallasTemperature.c **** 
ARM GAS  C:\Users\user\AppData\Local\Temp\ccGnldFX.s 			page 15


 539              		.loc 1 244 6 is_stmt 0 view .LVU120
 540 003c 0A23     		movs	r3, #10
 541 003e 0193     		str	r3, [sp, #4]
 542 0040 0923     		movs	r3, #9
 543 0042 0093     		str	r3, [sp]
 544 0044 3B46     		mov	r3, r7
 545 0046 1322     		movs	r2, #19
 546 0048 03A9     		add	r1, sp, #12
 547 004a 2068     		ldr	r0, [r4]
 548 004c FFF7FEFF 		bl	OW_Send
 549              	.LVL48:
 246:Core/Src/DallasTemperature.c **** }
 550              		.loc 1 246 2 is_stmt 1 view .LVU121
 246:Core/Src/DallasTemperature.c **** }
 551              		.loc 1 246 12 is_stmt 0 view .LVU122
 552 0050 0128     		cmp	r0, #1
 553 0052 14BF     		ite	ne
 554 0054 0020     		movne	r0, #0
 555              	.LVL49:
 246:Core/Src/DallasTemperature.c **** }
 556              		.loc 1 246 12 view .LVU123
 557 0056 0120     		moveq	r0, #1
 558 0058 DCE7     		b	.L33
 559              	.L38:
 560 005a 00BF     		.align	2
 561              	.L37:
 562 005c 00000000 		.word	.LANCHOR0
 563              		.cfi_endproc
 564              	.LFE78:
 566              		.section	.text.DT_IsConnected_ScratchPad,"ax",%progbits
 567              		.align	1
 568              		.global	DT_IsConnected_ScratchPad
 569              		.syntax unified
 570              		.thumb
 571              		.thumb_func
 572              		.fpu softvfp
 574              	DT_IsConnected_ScratchPad:
 575              	.LVL50:
 576              	.LFB77:
 214:Core/Src/DallasTemperature.c **** 	bool b = DT_ReadScratchPad(dt, deviceAddress, scratchPad);
 577              		.loc 1 214 1 is_stmt 1 view -0
 578              		.cfi_startproc
 579              		@ args = 0, pretend = 0, frame = 0
 580              		@ frame_needed = 0, uses_anonymous_args = 0
 214:Core/Src/DallasTemperature.c **** 	bool b = DT_ReadScratchPad(dt, deviceAddress, scratchPad);
 581              		.loc 1 214 1 is_stmt 0 view .LVU125
 582 0000 10B5     		push	{r4, lr}
 583              		.cfi_def_cfa_offset 8
 584              		.cfi_offset 4, -8
 585              		.cfi_offset 14, -4
 586 0002 1446     		mov	r4, r2
 215:Core/Src/DallasTemperature.c **** 	return (b /*&& IsAllZeros(scratchPad, 8)*/ && (OW_Crc8(scratchPad, 8) == scratchPad[SCRATCHPAD_CRC
 587              		.loc 1 215 2 is_stmt 1 view .LVU126
 215:Core/Src/DallasTemperature.c **** 	return (b /*&& IsAllZeros(scratchPad, 8)*/ && (OW_Crc8(scratchPad, 8) == scratchPad[SCRATCHPAD_CRC
 588              		.loc 1 215 11 is_stmt 0 view .LVU127
 589 0004 FFF7FEFF 		bl	DT_ReadScratchPad
 590              	.LVL51:
ARM GAS  C:\Users\user\AppData\Local\Temp\ccGnldFX.s 			page 16


 216:Core/Src/DallasTemperature.c **** }
 591              		.loc 1 216 2 is_stmt 1 view .LVU128
 216:Core/Src/DallasTemperature.c **** }
 592              		.loc 1 216 45 is_stmt 0 view .LVU129
 593 0008 08B9     		cbnz	r0, .L44
 594 000a 0020     		movs	r0, #0
 595              	.LVL52:
 596              	.L40:
 217:Core/Src/DallasTemperature.c **** 
 597              		.loc 1 217 1 discriminator 6 view .LVU130
 598 000c 10BD     		pop	{r4, pc}
 599              	.LVL53:
 600              	.L44:
 216:Core/Src/DallasTemperature.c **** }
 601              		.loc 1 216 49 discriminator 1 view .LVU131
 602 000e 0821     		movs	r1, #8
 603 0010 2046     		mov	r0, r4
 604              	.LVL54:
 216:Core/Src/DallasTemperature.c **** }
 605              		.loc 1 216 49 discriminator 1 view .LVU132
 606 0012 FFF7FEFF 		bl	OW_Crc8
 607              	.LVL55:
 216:Core/Src/DallasTemperature.c **** }
 608              		.loc 1 216 85 discriminator 1 view .LVU133
 609 0016 237A     		ldrb	r3, [r4, #8]	@ zero_extendqisi2
 216:Core/Src/DallasTemperature.c **** }
 610              		.loc 1 216 45 discriminator 1 view .LVU134
 611 0018 9842     		cmp	r0, r3
 612 001a 01D0     		beq	.L45
 216:Core/Src/DallasTemperature.c **** }
 613              		.loc 1 216 45 view .LVU135
 614 001c 0020     		movs	r0, #0
 615 001e F5E7     		b	.L40
 616              	.L45:
 617 0020 0120     		movs	r0, #1
 618 0022 F3E7     		b	.L40
 619              		.cfi_endproc
 620              	.LFE77:
 622              		.section	.text.DT_IsConnected,"ax",%progbits
 623              		.align	1
 624              		.global	DT_IsConnected
 625              		.syntax unified
 626              		.thumb
 627              		.thumb_func
 628              		.fpu softvfp
 630              	DT_IsConnected:
 631              	.LVL56:
 632              	.LFB76:
 206:Core/Src/DallasTemperature.c **** 	ScratchPad scratchPad;
 633              		.loc 1 206 1 is_stmt 1 view -0
 634              		.cfi_startproc
 635              		@ args = 0, pretend = 0, frame = 16
 636              		@ frame_needed = 0, uses_anonymous_args = 0
 206:Core/Src/DallasTemperature.c **** 	ScratchPad scratchPad;
 637              		.loc 1 206 1 is_stmt 0 view .LVU137
 638 0000 00B5     		push	{lr}
 639              		.cfi_def_cfa_offset 4
ARM GAS  C:\Users\user\AppData\Local\Temp\ccGnldFX.s 			page 17


 640              		.cfi_offset 14, -4
 641 0002 85B0     		sub	sp, sp, #20
 642              		.cfi_def_cfa_offset 24
 207:Core/Src/DallasTemperature.c **** 	return DT_IsConnected_ScratchPad(dt, deviceAddress, scratchPad);
 643              		.loc 1 207 2 is_stmt 1 view .LVU138
 208:Core/Src/DallasTemperature.c **** }
 644              		.loc 1 208 2 view .LVU139
 208:Core/Src/DallasTemperature.c **** }
 645              		.loc 1 208 9 is_stmt 0 view .LVU140
 646 0004 01AA     		add	r2, sp, #4
 647 0006 FFF7FEFF 		bl	DT_IsConnected_ScratchPad
 648              	.LVL57:
 209:Core/Src/DallasTemperature.c **** 
 649              		.loc 1 209 1 view .LVU141
 650 000a 05B0     		add	sp, sp, #20
 651              		.cfi_def_cfa_offset 4
 652              		@ sp needed
 653 000c 5DF804FB 		ldr	pc, [sp], #4
 654              		.cfi_endproc
 655              	.LFE76:
 657              		.section	.text.DT_ReadPowerSupply,"ax",%progbits
 658              		.align	1
 659              		.global	DT_ReadPowerSupply
 660              		.syntax unified
 661              		.thumb
 662              		.thumb_func
 663              		.fpu softvfp
 665              	DT_ReadPowerSupply:
 666              	.LVL58:
 667              	.LFB80:
 248:Core/Src/DallasTemperature.c **** 
 249:Core/Src/DallasTemperature.c **** void DT_WriteScratchPad(DallasTemperature_HandleTypeDef* dt, const uint8_t* deviceAddress, const ui
 250:Core/Src/DallasTemperature.c **** {
 251:Core/Src/DallasTemperature.c **** 	uint8_t query[13]={0x55, 0, 0, 0, 0, 0, 0, 0, 0, WRITESCRATCH, scratchPad[HIGH_ALARM_TEMP], scratc
 252:Core/Src/DallasTemperature.c **** 	memcpy(&query[1], deviceAddress, 8);
 253:Core/Src/DallasTemperature.c **** 
 254:Core/Src/DallasTemperature.c **** 	// DS1820 and DS18S20 have no configuration register
 255:Core/Src/DallasTemperature.c **** 	if (deviceAddress[DSROM_FAMILY] != DS18S20MODEL)
 256:Core/Src/DallasTemperature.c **** 	{
 257:Core/Src/DallasTemperature.c **** 		OW_Send(dt->ow, query, 13, NULL, 0, OW_NO_READ);
 258:Core/Src/DallasTemperature.c **** 	}
 259:Core/Src/DallasTemperature.c **** 	else
 260:Core/Src/DallasTemperature.c **** 	{
 261:Core/Src/DallasTemperature.c **** 		OW_Send(dt->ow, query, 12, NULL, 0, OW_NO_READ);
 262:Core/Src/DallasTemperature.c **** 	}
 263:Core/Src/DallasTemperature.c **** 
 264:Core/Src/DallasTemperature.c **** 	if (dt->autoSaveScratchPad)
 265:Core/Src/DallasTemperature.c **** 	{
 266:Core/Src/DallasTemperature.c **** 		DT_SaveScratchPad(dt, deviceAddress);
 267:Core/Src/DallasTemperature.c **** 	}
 268:Core/Src/DallasTemperature.c **** 	else
 269:Core/Src/DallasTemperature.c **** 	{
 270:Core/Src/DallasTemperature.c **** 		OW_Reset(dt->ow);
 271:Core/Src/DallasTemperature.c **** 	}
 272:Core/Src/DallasTemperature.c **** }
 273:Core/Src/DallasTemperature.c **** 
 274:Core/Src/DallasTemperature.c **** // returns true if parasite mode is used (2 wire)
ARM GAS  C:\Users\user\AppData\Local\Temp\ccGnldFX.s 			page 18


 275:Core/Src/DallasTemperature.c **** // returns false if normal mode is used (3 wire)
 276:Core/Src/DallasTemperature.c **** // if no address is given (or nullptr) it checks if any device on the bus
 277:Core/Src/DallasTemperature.c **** // uses parasite mode.
 278:Core/Src/DallasTemperature.c **** bool DT_ReadPowerSupply(DallasTemperature_HandleTypeDef* dt, const uint8_t* deviceAddress)
 279:Core/Src/DallasTemperature.c **** {
 668              		.loc 1 279 1 is_stmt 1 view -0
 669              		.cfi_startproc
 670              		@ args = 0, pretend = 0, frame = 16
 671              		@ frame_needed = 0, uses_anonymous_args = 0
 672              		.loc 1 279 1 is_stmt 0 view .LVU143
 673 0000 30B5     		push	{r4, r5, lr}
 674              		.cfi_def_cfa_offset 12
 675              		.cfi_offset 4, -12
 676              		.cfi_offset 5, -8
 677              		.cfi_offset 14, -4
 678 0002 87B0     		sub	sp, sp, #28
 679              		.cfi_def_cfa_offset 40
 680 0004 0446     		mov	r4, r0
 681 0006 0D46     		mov	r5, r1
 280:Core/Src/DallasTemperature.c **** 	uint8_t parasiteMode = 0;
 682              		.loc 1 280 2 is_stmt 1 view .LVU144
 683              		.loc 1 280 10 is_stmt 0 view .LVU145
 684 0008 0023     		movs	r3, #0
 685 000a 8DF81730 		strb	r3, [sp, #23]
 281:Core/Src/DallasTemperature.c **** 
 282:Core/Src/DallasTemperature.c **** 	OW_Reset(dt->ow);
 686              		.loc 1 282 2 is_stmt 1 view .LVU146
 687 000e 0068     		ldr	r0, [r0]
 688              	.LVL59:
 689              		.loc 1 282 2 is_stmt 0 view .LVU147
 690 0010 FFF7FEFF 		bl	OW_Reset
 691              	.LVL60:
 283:Core/Src/DallasTemperature.c **** 
 284:Core/Src/DallasTemperature.c **** 	uint8_t query[11]={0x55, 0, 0, 0, 0, 0, 0, 0, 0, READPOWERSUPPLY, 0xFF};
 692              		.loc 1 284 2 is_stmt 1 view .LVU148
 693              		.loc 1 284 10 is_stmt 0 view .LVU149
 694 0014 03AB     		add	r3, sp, #12
 695 0016 1A4A     		ldr	r2, .L55
 696 0018 07CA     		ldm	r2, {r0, r1, r2}
 697 001a 03C3     		stmia	r3!, {r0, r1}
 698 001c 23F8022B 		strh	r2, [r3], #2	@ movhi
 699 0020 120C     		lsrs	r2, r2, #16
 700 0022 1A70     		strb	r2, [r3]
 285:Core/Src/DallasTemperature.c **** 
 286:Core/Src/DallasTemperature.c **** 	if (deviceAddress == NULL)
 701              		.loc 1 286 2 is_stmt 1 view .LVU150
 702              		.loc 1 286 5 is_stmt 0 view .LVU151
 703 0024 C5B1     		cbz	r5, .L54
 287:Core/Src/DallasTemperature.c **** 	{
 288:Core/Src/DallasTemperature.c **** 	  query[0] = 0xCC;
 289:Core/Src/DallasTemperature.c **** 	  query[1] = READPOWERSUPPLY;
 290:Core/Src/DallasTemperature.c **** 	  OW_Send(dt->ow, query, 3, &parasiteMode, 1, 2);
 291:Core/Src/DallasTemperature.c **** 	}
 292:Core/Src/DallasTemperature.c **** 	else
 293:Core/Src/DallasTemperature.c **** 	{
 294:Core/Src/DallasTemperature.c **** 	  query[0] = 0x55;
 704              		.loc 1 294 4 is_stmt 1 view .LVU152
ARM GAS  C:\Users\user\AppData\Local\Temp\ccGnldFX.s 			page 19


 295:Core/Src/DallasTemperature.c **** 	  memcpy(&query[1], deviceAddress, 8);
 705              		.loc 1 295 4 view .LVU153
 706 0026 2A68     		ldr	r2, [r5]	@ unaligned
 707 0028 6B68     		ldr	r3, [r5, #4]	@ unaligned
 708 002a CDF80D20 		str	r2, [sp, #13]	@ unaligned
 709 002e CDF81130 		str	r3, [sp, #17]	@ unaligned
 296:Core/Src/DallasTemperature.c **** 	  OW_Send(dt->ow, query, 10, &parasiteMode, 1, 10);
 710              		.loc 1 296 4 view .LVU154
 711 0032 0A22     		movs	r2, #10
 712 0034 0192     		str	r2, [sp, #4]
 713 0036 0123     		movs	r3, #1
 714 0038 0093     		str	r3, [sp]
 715 003a 0DF11703 		add	r3, sp, #23
 716 003e 03A9     		add	r1, sp, #12
 717 0040 2068     		ldr	r0, [r4]
 718 0042 FFF7FEFF 		bl	OW_Send
 719              	.LVL61:
 720              	.L50:
 297:Core/Src/DallasTemperature.c **** 	}
 298:Core/Src/DallasTemperature.c **** 
 299:Core/Src/DallasTemperature.c **** 	OW_Reset(dt->ow);
 721              		.loc 1 299 2 view .LVU155
 722 0046 2068     		ldr	r0, [r4]
 723 0048 FFF7FEFF 		bl	OW_Reset
 724              	.LVL62:
 300:Core/Src/DallasTemperature.c **** 
 301:Core/Src/DallasTemperature.c **** 	if (parasiteMode == 0)
 725              		.loc 1 301 2 view .LVU156
 726              		.loc 1 301 19 is_stmt 0 view .LVU157
 727 004c 9DF81730 		ldrb	r3, [sp, #23]	@ zero_extendqisi2
 728              		.loc 1 301 5 view .LVU158
 729 0050 A3B9     		cbnz	r3, .L52
 302:Core/Src/DallasTemperature.c **** 	{
 303:Core/Src/DallasTemperature.c **** 		return true;
 730              		.loc 1 303 10 view .LVU159
 731 0052 0120     		movs	r0, #1
 732              	.L51:
 304:Core/Src/DallasTemperature.c **** 	}
 305:Core/Src/DallasTemperature.c **** 	else
 306:Core/Src/DallasTemperature.c **** 	{
 307:Core/Src/DallasTemperature.c **** 		return false;
 308:Core/Src/DallasTemperature.c **** 	}
 309:Core/Src/DallasTemperature.c **** }
 733              		.loc 1 309 1 view .LVU160
 734 0054 07B0     		add	sp, sp, #28
 735              		.cfi_remember_state
 736              		.cfi_def_cfa_offset 12
 737              		@ sp needed
 738 0056 30BD     		pop	{r4, r5, pc}
 739              	.LVL63:
 740              	.L54:
 741              		.cfi_restore_state
 288:Core/Src/DallasTemperature.c **** 	  query[1] = READPOWERSUPPLY;
 742              		.loc 1 288 4 is_stmt 1 view .LVU161
 288:Core/Src/DallasTemperature.c **** 	  query[1] = READPOWERSUPPLY;
 743              		.loc 1 288 13 is_stmt 0 view .LVU162
 744 0058 CC23     		movs	r3, #204
ARM GAS  C:\Users\user\AppData\Local\Temp\ccGnldFX.s 			page 20


 745 005a 8DF80C30 		strb	r3, [sp, #12]
 289:Core/Src/DallasTemperature.c **** 	  OW_Send(dt->ow, query, 3, &parasiteMode, 1, 2);
 746              		.loc 1 289 4 is_stmt 1 view .LVU163
 289:Core/Src/DallasTemperature.c **** 	  OW_Send(dt->ow, query, 3, &parasiteMode, 1, 2);
 747              		.loc 1 289 13 is_stmt 0 view .LVU164
 748 005e B423     		movs	r3, #180
 749 0060 8DF80D30 		strb	r3, [sp, #13]
 290:Core/Src/DallasTemperature.c **** 	}
 750              		.loc 1 290 4 is_stmt 1 view .LVU165
 751 0064 0223     		movs	r3, #2
 752 0066 0193     		str	r3, [sp, #4]
 753 0068 0123     		movs	r3, #1
 754 006a 0093     		str	r3, [sp]
 755 006c 0DF11703 		add	r3, sp, #23
 756 0070 0322     		movs	r2, #3
 757 0072 03A9     		add	r1, sp, #12
 758 0074 2068     		ldr	r0, [r4]
 759 0076 FFF7FEFF 		bl	OW_Send
 760              	.LVL64:
 761 007a E4E7     		b	.L50
 762              	.L52:
 307:Core/Src/DallasTemperature.c **** 	}
 763              		.loc 1 307 10 is_stmt 0 view .LVU166
 764 007c 0020     		movs	r0, #0
 765 007e E9E7     		b	.L51
 766              	.L56:
 767              		.align	2
 768              	.L55:
 769 0080 14000000 		.word	.LANCHOR0+20
 770              		.cfi_endproc
 771              	.LFE80:
 773              		.section	.text.DT_GetAllResolution,"ax",%progbits
 774              		.align	1
 775              		.global	DT_GetAllResolution
 776              		.syntax unified
 777              		.thumb
 778              		.thumb_func
 779              		.fpu softvfp
 781              	DT_GetAllResolution:
 782              	.LVL65:
 783              	.LFB83:
 310:Core/Src/DallasTemperature.c **** 
 311:Core/Src/DallasTemperature.c **** // set resolution of all devices to 9, 10, 11, or 12 bits
 312:Core/Src/DallasTemperature.c **** // if new resolution is out of range, it is constrained.
 313:Core/Src/DallasTemperature.c **** void DT_SetAllResolution(DallasTemperature_HandleTypeDef* dt, uint8_t newResolution)
 314:Core/Src/DallasTemperature.c **** {
 315:Core/Src/DallasTemperature.c **** 	dt->bitResolution = constrain(newResolution, 9, 12);
 316:Core/Src/DallasTemperature.c **** 	CurrentDeviceAddress deviceAddress;
 317:Core/Src/DallasTemperature.c **** 
 318:Core/Src/DallasTemperature.c **** 	for (int i = 0; i < dt->devices; i++)
 319:Core/Src/DallasTemperature.c **** 	{
 320:Core/Src/DallasTemperature.c **** 		DT_GetAddress(dt, deviceAddress, i);
 321:Core/Src/DallasTemperature.c **** 		DT_SetResolution(dt, deviceAddress, dt->bitResolution, true);
 322:Core/Src/DallasTemperature.c **** 	}
 323:Core/Src/DallasTemperature.c **** }
 324:Core/Src/DallasTemperature.c **** 
 325:Core/Src/DallasTemperature.c **** // set resolution of a device to 9, 10, 11, or 12 bits
ARM GAS  C:\Users\user\AppData\Local\Temp\ccGnldFX.s 			page 21


 326:Core/Src/DallasTemperature.c **** // if new resolution is out of range, 9 bits is used.
 327:Core/Src/DallasTemperature.c **** bool DT_SetResolution(DallasTemperature_HandleTypeDef* dt, const uint8_t* deviceAddress, uint8_t ne
 328:Core/Src/DallasTemperature.c **** {
 329:Core/Src/DallasTemperature.c **** 	// ensure same behavior as setResolution(uint8_t newResolution)
 330:Core/Src/DallasTemperature.c **** 	newResolution = constrain(newResolution, 9, 12);
 331:Core/Src/DallasTemperature.c **** 
 332:Core/Src/DallasTemperature.c **** 	// return when stored value == new value
 333:Core/Src/DallasTemperature.c **** 	if (DT_GetResolution(dt, deviceAddress) == newResolution)
 334:Core/Src/DallasTemperature.c **** 		return true;
 335:Core/Src/DallasTemperature.c **** 
 336:Core/Src/DallasTemperature.c **** 	ScratchPad scratchPad;
 337:Core/Src/DallasTemperature.c **** 
 338:Core/Src/DallasTemperature.c **** 	if (DT_IsConnected_ScratchPad(dt, deviceAddress, scratchPad))
 339:Core/Src/DallasTemperature.c **** 	{
 340:Core/Src/DallasTemperature.c **** 		// DS1820 and DS18S20 have no resolution configuration register
 341:Core/Src/DallasTemperature.c **** 		if (deviceAddress[DSROM_FAMILY] != DS18S20MODEL)
 342:Core/Src/DallasTemperature.c **** 		{
 343:Core/Src/DallasTemperature.c **** 			switch (newResolution)
 344:Core/Src/DallasTemperature.c **** 			{
 345:Core/Src/DallasTemperature.c **** 			case 12:
 346:Core/Src/DallasTemperature.c **** 				scratchPad[CONFIGURATION] = TEMP_12_BIT;
 347:Core/Src/DallasTemperature.c **** 				break;
 348:Core/Src/DallasTemperature.c **** 			case 11:
 349:Core/Src/DallasTemperature.c **** 				scratchPad[CONFIGURATION] = TEMP_11_BIT;
 350:Core/Src/DallasTemperature.c **** 				break;
 351:Core/Src/DallasTemperature.c **** 			case 10:
 352:Core/Src/DallasTemperature.c **** 				scratchPad[CONFIGURATION] = TEMP_10_BIT;
 353:Core/Src/DallasTemperature.c **** 				break;
 354:Core/Src/DallasTemperature.c **** 			case 9:
 355:Core/Src/DallasTemperature.c **** 			default:
 356:Core/Src/DallasTemperature.c **** 				scratchPad[CONFIGURATION] = TEMP_9_BIT;
 357:Core/Src/DallasTemperature.c **** 				break;
 358:Core/Src/DallasTemperature.c **** 			}
 359:Core/Src/DallasTemperature.c **** 
 360:Core/Src/DallasTemperature.c **** 			DT_WriteScratchPad(dt, deviceAddress, scratchPad);
 361:Core/Src/DallasTemperature.c **** 
 362:Core/Src/DallasTemperature.c **** 			// without calculation we can always set it to max
 363:Core/Src/DallasTemperature.c **** 			dt->bitResolution = max(dt->bitResolution, newResolution);
 364:Core/Src/DallasTemperature.c **** 
 365:Core/Src/DallasTemperature.c **** 			if (!skipGlobalBitResolutionCalculation && (dt->bitResolution > newResolution))
 366:Core/Src/DallasTemperature.c **** 			{
 367:Core/Src/DallasTemperature.c **** 				dt->bitResolution = newResolution;
 368:Core/Src/DallasTemperature.c **** 
 369:Core/Src/DallasTemperature.c **** 				CurrentDeviceAddress deviceAddr;
 370:Core/Src/DallasTemperature.c **** 
 371:Core/Src/DallasTemperature.c **** 				for (int i = 0; i < dt->devices; i++)
 372:Core/Src/DallasTemperature.c **** 				{
 373:Core/Src/DallasTemperature.c **** 					DT_GetAddress(dt, deviceAddr, i);
 374:Core/Src/DallasTemperature.c **** 					dt->bitResolution = max(dt->bitResolution, DT_GetResolution(dt, deviceAddr));
 375:Core/Src/DallasTemperature.c **** 				}
 376:Core/Src/DallasTemperature.c **** 			}
 377:Core/Src/DallasTemperature.c **** 		}
 378:Core/Src/DallasTemperature.c **** 		return true;  // new value set
 379:Core/Src/DallasTemperature.c **** 	}
 380:Core/Src/DallasTemperature.c **** 	return false;
 381:Core/Src/DallasTemperature.c **** }
 382:Core/Src/DallasTemperature.c **** 
ARM GAS  C:\Users\user\AppData\Local\Temp\ccGnldFX.s 			page 22


 383:Core/Src/DallasTemperature.c **** // returns the global resolution
 384:Core/Src/DallasTemperature.c **** uint8_t DT_GetAllResolution(DallasTemperature_HandleTypeDef* dt)
 385:Core/Src/DallasTemperature.c **** {
 784              		.loc 1 385 1 is_stmt 1 view -0
 785              		.cfi_startproc
 786              		@ args = 0, pretend = 0, frame = 0
 787              		@ frame_needed = 0, uses_anonymous_args = 0
 788              		@ link register save eliminated.
 386:Core/Src/DallasTemperature.c **** 	return dt->bitResolution;
 789              		.loc 1 386 2 view .LVU168
 387:Core/Src/DallasTemperature.c **** }
 790              		.loc 1 387 1 is_stmt 0 view .LVU169
 791 0000 007A     		ldrb	r0, [r0, #8]	@ zero_extendqisi2
 792              	.LVL66:
 793              		.loc 1 387 1 view .LVU170
 794 0002 7047     		bx	lr
 795              		.cfi_endproc
 796              	.LFE83:
 798              		.section	.text.DT_GetResolution,"ax",%progbits
 799              		.align	1
 800              		.global	DT_GetResolution
 801              		.syntax unified
 802              		.thumb
 803              		.thumb_func
 804              		.fpu softvfp
 806              	DT_GetResolution:
 807              	.LVL67:
 808              	.LFB84:
 388:Core/Src/DallasTemperature.c **** 
 389:Core/Src/DallasTemperature.c **** // returns the current resolution of the device, 9-12
 390:Core/Src/DallasTemperature.c **** // returns 0 if device not found
 391:Core/Src/DallasTemperature.c **** uint8_t DT_GetResolution(DallasTemperature_HandleTypeDef* dt, const uint8_t* deviceAddress)
 392:Core/Src/DallasTemperature.c **** {
 809              		.loc 1 392 1 is_stmt 1 view -0
 810              		.cfi_startproc
 811              		@ args = 0, pretend = 0, frame = 16
 812              		@ frame_needed = 0, uses_anonymous_args = 0
 393:Core/Src/DallasTemperature.c **** 	// DS1820 and DS18S20 have no resolution configuration register
 394:Core/Src/DallasTemperature.c **** 	if (deviceAddress[0] == DS18S20MODEL)
 813              		.loc 1 394 2 view .LVU172
 814              		.loc 1 394 19 is_stmt 0 view .LVU173
 815 0000 0B78     		ldrb	r3, [r1]	@ zero_extendqisi2
 816              		.loc 1 394 5 view .LVU174
 817 0002 102B     		cmp	r3, #16
 818 0004 14D0     		beq	.L61
 392:Core/Src/DallasTemperature.c **** 	// DS1820 and DS18S20 have no resolution configuration register
 819              		.loc 1 392 1 view .LVU175
 820 0006 00B5     		push	{lr}
 821              		.cfi_def_cfa_offset 4
 822              		.cfi_offset 14, -4
 823 0008 85B0     		sub	sp, sp, #20
 824              		.cfi_def_cfa_offset 24
 395:Core/Src/DallasTemperature.c **** 		return 12;
 396:Core/Src/DallasTemperature.c **** 
 397:Core/Src/DallasTemperature.c **** 	ScratchPad scratchPad;
 825              		.loc 1 397 2 is_stmt 1 view .LVU176
 398:Core/Src/DallasTemperature.c **** 	if (DT_IsConnected_ScratchPad(dt, deviceAddress, scratchPad))
ARM GAS  C:\Users\user\AppData\Local\Temp\ccGnldFX.s 			page 23


 826              		.loc 1 398 2 view .LVU177
 827              		.loc 1 398 6 is_stmt 0 view .LVU178
 828 000a 01AA     		add	r2, sp, #4
 829 000c FFF7FEFF 		bl	DT_IsConnected_ScratchPad
 830              	.LVL68:
 831              		.loc 1 398 5 view .LVU179
 832 0010 80B1     		cbz	r0, .L62
 399:Core/Src/DallasTemperature.c **** 	{
 400:Core/Src/DallasTemperature.c **** 		switch (scratchPad[CONFIGURATION])
 833              		.loc 1 400 3 is_stmt 1 view .LVU180
 834              		.loc 1 400 21 is_stmt 0 view .LVU181
 835 0012 9DF80830 		ldrb	r3, [sp, #8]	@ zero_extendqisi2
 836              		.loc 1 400 3 view .LVU182
 837 0016 5F2B     		cmp	r3, #95
 838 0018 10D0     		beq	.L63
 839 001a 05D8     		bhi	.L60
 840 001c 1F2B     		cmp	r3, #31
 841 001e 0FD0     		beq	.L64
 842 0020 3F2B     		cmp	r3, #63
 843 0022 0FD1     		bne	.L65
 401:Core/Src/DallasTemperature.c **** 		{
 402:Core/Src/DallasTemperature.c **** 		case TEMP_12_BIT:
 403:Core/Src/DallasTemperature.c **** 			return 12;
 404:Core/Src/DallasTemperature.c **** 
 405:Core/Src/DallasTemperature.c **** 		case TEMP_11_BIT:
 406:Core/Src/DallasTemperature.c **** 			return 11;
 407:Core/Src/DallasTemperature.c **** 
 408:Core/Src/DallasTemperature.c **** 		case TEMP_10_BIT:
 409:Core/Src/DallasTemperature.c **** 			return 10;
 844              		.loc 1 409 11 view .LVU183
 845 0024 0A20     		movs	r0, #10
 846 0026 06E0     		b	.L59
 847              	.L60:
 400:Core/Src/DallasTemperature.c **** 		{
 848              		.loc 1 400 3 view .LVU184
 849 0028 7F2B     		cmp	r3, #127
 850 002a 0DD1     		bne	.L66
 403:Core/Src/DallasTemperature.c **** 
 851              		.loc 1 403 11 view .LVU185
 852 002c 0C20     		movs	r0, #12
 853 002e 02E0     		b	.L59
 854              	.LVL69:
 855              	.L61:
 856              		.cfi_def_cfa_offset 0
 857              		.cfi_restore 14
 395:Core/Src/DallasTemperature.c **** 
 858              		.loc 1 395 10 view .LVU186
 859 0030 0C20     		movs	r0, #12
 860              	.LVL70:
 410:Core/Src/DallasTemperature.c **** 
 411:Core/Src/DallasTemperature.c **** 		case TEMP_9_BIT:
 412:Core/Src/DallasTemperature.c **** 			return 9;
 413:Core/Src/DallasTemperature.c **** 		}
 414:Core/Src/DallasTemperature.c **** 	}
 415:Core/Src/DallasTemperature.c **** 	return 0;
 416:Core/Src/DallasTemperature.c **** }
 861              		.loc 1 416 1 view .LVU187
ARM GAS  C:\Users\user\AppData\Local\Temp\ccGnldFX.s 			page 24


 862 0032 7047     		bx	lr
 863              	.LVL71:
 864              	.L62:
 865              		.cfi_def_cfa_offset 24
 866              		.cfi_offset 14, -4
 415:Core/Src/DallasTemperature.c **** }
 867              		.loc 1 415 9 view .LVU188
 868 0034 0020     		movs	r0, #0
 869              	.L59:
 870              		.loc 1 416 1 view .LVU189
 871 0036 05B0     		add	sp, sp, #20
 872              		.cfi_remember_state
 873              		.cfi_def_cfa_offset 4
 874              		@ sp needed
 875 0038 5DF804FB 		ldr	pc, [sp], #4
 876              	.L63:
 877              		.cfi_restore_state
 406:Core/Src/DallasTemperature.c **** 
 878              		.loc 1 406 11 view .LVU190
 879 003c 0B20     		movs	r0, #11
 880 003e FAE7     		b	.L59
 881              	.L64:
 412:Core/Src/DallasTemperature.c **** 		}
 882              		.loc 1 412 11 view .LVU191
 883 0040 0920     		movs	r0, #9
 884 0042 F8E7     		b	.L59
 885              	.L65:
 400:Core/Src/DallasTemperature.c **** 		{
 886              		.loc 1 400 3 view .LVU192
 887 0044 0020     		movs	r0, #0
 888 0046 F6E7     		b	.L59
 889              	.L66:
 890 0048 0020     		movs	r0, #0
 891 004a F4E7     		b	.L59
 892              		.cfi_endproc
 893              	.LFE84:
 895              		.section	.text.DT_Begin,"ax",%progbits
 896              		.align	1
 897              		.global	DT_Begin
 898              		.syntax unified
 899              		.thumb
 900              		.thumb_func
 901              		.fpu softvfp
 903              	DT_Begin:
 904              	.LVL72:
 905              	.LFB70:
 126:Core/Src/DallasTemperature.c **** 	AllDeviceAddress deviceAddress;
 906              		.loc 1 126 1 is_stmt 1 view -0
 907              		.cfi_startproc
 908              		@ args = 0, pretend = 0, frame = 40
 909              		@ frame_needed = 0, uses_anonymous_args = 0
 126:Core/Src/DallasTemperature.c **** 	AllDeviceAddress deviceAddress;
 910              		.loc 1 126 1 is_stmt 0 view .LVU194
 911 0000 F0B5     		push	{r4, r5, r6, r7, lr}
 912              		.cfi_def_cfa_offset 20
 913              		.cfi_offset 4, -20
 914              		.cfi_offset 5, -16
ARM GAS  C:\Users\user\AppData\Local\Temp\ccGnldFX.s 			page 25


 915              		.cfi_offset 6, -12
 916              		.cfi_offset 7, -8
 917              		.cfi_offset 14, -4
 918 0002 8BB0     		sub	sp, sp, #44
 919              		.cfi_def_cfa_offset 64
 920 0004 0646     		mov	r6, r0
 127:Core/Src/DallasTemperature.c **** 
 921              		.loc 1 127 2 is_stmt 1 view .LVU195
 129:Core/Src/DallasTemperature.c **** 	dt->devices = 0; 	// Reset the number of devices when we enumerate wire devices
 922              		.loc 1 129 2 view .LVU196
 923 0006 0068     		ldr	r0, [r0]
 924              	.LVL73:
 129:Core/Src/DallasTemperature.c **** 	dt->devices = 0; 	// Reset the number of devices when we enumerate wire devices
 925              		.loc 1 129 2 is_stmt 0 view .LVU197
 926 0008 FFF7FEFF 		bl	OW_ResetSearch
 927              	.LVL74:
 130:Core/Src/DallasTemperature.c **** 	dt->ds18Count = 0; 	// Reset number of DS18xxx Family devices
 928              		.loc 1 130 2 is_stmt 1 view .LVU198
 130:Core/Src/DallasTemperature.c **** 	dt->ds18Count = 0; 	// Reset number of DS18xxx Family devices
 929              		.loc 1 130 14 is_stmt 0 view .LVU199
 930 000c 0024     		movs	r4, #0
 931 000e 3471     		strb	r4, [r6, #4]
 131:Core/Src/DallasTemperature.c **** 
 932              		.loc 1 131 2 is_stmt 1 view .LVU200
 131:Core/Src/DallasTemperature.c **** 
 933              		.loc 1 131 16 is_stmt 0 view .LVU201
 934 0010 7471     		strb	r4, [r6, #5]
 133:Core/Src/DallasTemperature.c **** 
 935              		.loc 1 133 2 is_stmt 1 view .LVU202
 133:Core/Src/DallasTemperature.c **** 
 936              		.loc 1 133 16 is_stmt 0 view .LVU203
 937 0012 0522     		movs	r2, #5
 938 0014 6946     		mov	r1, sp
 939 0016 3068     		ldr	r0, [r6]
 940 0018 FFF7FEFF 		bl	OW_Search
 941              	.LVL75:
 133:Core/Src/DallasTemperature.c **** 
 942              		.loc 1 133 14 view .LVU204
 943 001c 3071     		strb	r0, [r6, #4]
 135:Core/Src/DallasTemperature.c **** 	{
 944              		.loc 1 135 2 is_stmt 1 view .LVU205
 945              	.LBB2:
 135:Core/Src/DallasTemperature.c **** 	{
 946              		.loc 1 135 6 view .LVU206
 947              	.LVL76:
 135:Core/Src/DallasTemperature.c **** 	{
 948              		.loc 1 135 2 is_stmt 0 view .LVU207
 949 001e 0EE0     		b	.L72
 950              	.LVL77:
 951              	.L80:
 140:Core/Src/DallasTemperature.c **** 				dt->parasite = true;
 952              		.loc 1 140 25 discriminator 1 view .LVU208
 953 0020 2946     		mov	r1, r5
 954 0022 3046     		mov	r0, r6
 955 0024 FFF7FEFF 		bl	DT_ReadPowerSupply
 956              	.LVL78:
 140:Core/Src/DallasTemperature.c **** 				dt->parasite = true;
ARM GAS  C:\Users\user\AppData\Local\Temp\ccGnldFX.s 			page 26


 957              		.loc 1 140 22 discriminator 1 view .LVU209
 958 0028 B0B1     		cbz	r0, .L74
 141:Core/Src/DallasTemperature.c **** 
 959              		.loc 1 141 5 is_stmt 1 view .LVU210
 141:Core/Src/DallasTemperature.c **** 
 960              		.loc 1 141 18 is_stmt 0 view .LVU211
 961 002a 0123     		movs	r3, #1
 962 002c B371     		strb	r3, [r6, #6]
 963 002e 13E0     		b	.L74
 964              	.L75:
 143:Core/Src/DallasTemperature.c **** 
 965              		.loc 1 143 24 discriminator 2 view .LVU212
 966 0030 2946     		mov	r1, r5
 967 0032 3046     		mov	r0, r6
 968 0034 FFF7FEFF 		bl	DT_GetResolution
 969              	.LVL79:
 970 0038 16E0     		b	.L76
 971              	.L73:
 135:Core/Src/DallasTemperature.c **** 	{
 972              		.loc 1 135 38 is_stmt 1 discriminator 2 view .LVU213
 135:Core/Src/DallasTemperature.c **** 	{
 973              		.loc 1 135 39 is_stmt 0 discriminator 2 view .LVU214
 974 003a 0134     		adds	r4, r4, #1
 975              	.LVL80:
 135:Core/Src/DallasTemperature.c **** 	{
 976              		.loc 1 135 39 discriminator 2 view .LVU215
 977 003c E4B2     		uxtb	r4, r4
 978              	.LVL81:
 979              	.L72:
 135:Core/Src/DallasTemperature.c **** 	{
 980              		.loc 1 135 21 is_stmt 1 discriminator 1 view .LVU216
 135:Core/Src/DallasTemperature.c **** 	{
 981              		.loc 1 135 27 is_stmt 0 discriminator 1 view .LVU217
 982 003e 3379     		ldrb	r3, [r6, #4]	@ zero_extendqisi2
 135:Core/Src/DallasTemperature.c **** 	{
 983              		.loc 1 135 2 discriminator 1 view .LVU218
 984 0040 A342     		cmp	r3, r4
 985 0042 1BD9     		bls	.L79
 137:Core/Src/DallasTemperature.c **** 		{
 986              		.loc 1 137 3 is_stmt 1 view .LVU219
 137:Core/Src/DallasTemperature.c **** 		{
 987              		.loc 1 137 23 is_stmt 0 view .LVU220
 988 0044 0DEBC405 		add	r5, sp, r4, lsl #3
 137:Core/Src/DallasTemperature.c **** 		{
 989              		.loc 1 137 7 view .LVU221
 990 0048 2846     		mov	r0, r5
 991 004a FFF7FEFF 		bl	DT_ValidAddress
 992              	.LVL82:
 137:Core/Src/DallasTemperature.c **** 		{
 993              		.loc 1 137 6 view .LVU222
 994 004e 0028     		cmp	r0, #0
 995 0050 F3D0     		beq	.L73
 140:Core/Src/DallasTemperature.c **** 				dt->parasite = true;
 996              		.loc 1 140 4 is_stmt 1 view .LVU223
 140:Core/Src/DallasTemperature.c **** 				dt->parasite = true;
 997              		.loc 1 140 11 is_stmt 0 view .LVU224
 998 0052 B379     		ldrb	r3, [r6, #6]	@ zero_extendqisi2
ARM GAS  C:\Users\user\AppData\Local\Temp\ccGnldFX.s 			page 27


 140:Core/Src/DallasTemperature.c **** 				dt->parasite = true;
 999              		.loc 1 140 7 view .LVU225
 1000 0054 002B     		cmp	r3, #0
 1001 0056 E3D0     		beq	.L80
 1002              	.L74:
 143:Core/Src/DallasTemperature.c **** 
 1003              		.loc 1 143 4 is_stmt 1 view .LVU226
 143:Core/Src/DallasTemperature.c **** 
 1004              		.loc 1 143 24 is_stmt 0 view .LVU227
 1005 0058 377A     		ldrb	r7, [r6, #8]	@ zero_extendqisi2
 1006 005a 2946     		mov	r1, r5
 1007 005c 3046     		mov	r0, r6
 1008 005e FFF7FEFF 		bl	DT_GetResolution
 1009              	.LVL83:
 143:Core/Src/DallasTemperature.c **** 
 1010              		.loc 1 143 22 view .LVU228
 1011 0062 8742     		cmp	r7, r0
 1012 0064 E4D9     		bls	.L75
 143:Core/Src/DallasTemperature.c **** 
 1013              		.loc 1 143 22 discriminator 1 view .LVU229
 1014 0066 307A     		ldrb	r0, [r6, #8]	@ zero_extendqisi2
 1015              	.L76:
 143:Core/Src/DallasTemperature.c **** 
 1016              		.loc 1 143 22 discriminator 4 view .LVU230
 1017 0068 3072     		strb	r0, [r6, #8]
 145:Core/Src/DallasTemperature.c **** 			{
 1018              		.loc 1 145 4 is_stmt 1 discriminator 4 view .LVU231
 145:Core/Src/DallasTemperature.c **** 			{
 1019              		.loc 1 145 8 is_stmt 0 discriminator 4 view .LVU232
 1020 006a 2846     		mov	r0, r5
 1021 006c FFF7FEFF 		bl	DT_ValidFamily
 1022              	.LVL84:
 145:Core/Src/DallasTemperature.c **** 			{
 1023              		.loc 1 145 7 discriminator 4 view .LVU233
 1024 0070 0028     		cmp	r0, #0
 1025 0072 E2D0     		beq	.L73
 147:Core/Src/DallasTemperature.c **** 			}
 1026              		.loc 1 147 5 is_stmt 1 view .LVU234
 147:Core/Src/DallasTemperature.c **** 			}
 1027              		.loc 1 147 7 is_stmt 0 view .LVU235
 1028 0074 7379     		ldrb	r3, [r6, #5]	@ zero_extendqisi2
 147:Core/Src/DallasTemperature.c **** 			}
 1029              		.loc 1 147 18 view .LVU236
 1030 0076 0133     		adds	r3, r3, #1
 1031 0078 7371     		strb	r3, [r6, #5]
 1032 007a DEE7     		b	.L73
 1033              	.L79:
 147:Core/Src/DallasTemperature.c **** 			}
 1034              		.loc 1 147 18 view .LVU237
 1035              	.LBE2:
 151:Core/Src/DallasTemperature.c **** 
 1036              		.loc 1 151 1 view .LVU238
 1037 007c 0BB0     		add	sp, sp, #44
 1038              		.cfi_def_cfa_offset 20
 1039              		@ sp needed
 1040 007e F0BD     		pop	{r4, r5, r6, r7, pc}
 151:Core/Src/DallasTemperature.c **** 
ARM GAS  C:\Users\user\AppData\Local\Temp\ccGnldFX.s 			page 28


 1041              		.loc 1 151 1 view .LVU239
 1042              		.cfi_endproc
 1043              	.LFE70:
 1045              		.section	.text.DT_SetWaitForConversion,"ax",%progbits
 1046              		.align	1
 1047              		.global	DT_SetWaitForConversion
 1048              		.syntax unified
 1049              		.thumb
 1050              		.thumb_func
 1051              		.fpu softvfp
 1053              	DT_SetWaitForConversion:
 1054              	.LVL85:
 1055              	.LFB85:
 417:Core/Src/DallasTemperature.c **** 
 418:Core/Src/DallasTemperature.c **** // sets the value of the waitForConversion flag
 419:Core/Src/DallasTemperature.c **** // TRUE : function requestTemperature() etc returns when conversion is ready
 420:Core/Src/DallasTemperature.c **** // FALSE: function requestTemperature() etc returns immediately (USE WITH CARE!!)
 421:Core/Src/DallasTemperature.c **** //        (1) programmer has to check if the needed delay has passed
 422:Core/Src/DallasTemperature.c **** //        (2) but the application can do meaningful things in that time
 423:Core/Src/DallasTemperature.c **** void DT_SetWaitForConversion(DallasTemperature_HandleTypeDef* dt, bool flag)
 424:Core/Src/DallasTemperature.c **** {
 1056              		.loc 1 424 1 is_stmt 1 view -0
 1057              		.cfi_startproc
 1058              		@ args = 0, pretend = 0, frame = 0
 1059              		@ frame_needed = 0, uses_anonymous_args = 0
 1060              		@ link register save eliminated.
 425:Core/Src/DallasTemperature.c **** 	dt->waitForConversion = flag;
 1061              		.loc 1 425 2 view .LVU241
 1062              		.loc 1 425 24 is_stmt 0 view .LVU242
 1063 0000 4172     		strb	r1, [r0, #9]
 426:Core/Src/DallasTemperature.c **** }
 1064              		.loc 1 426 1 view .LVU243
 1065 0002 7047     		bx	lr
 1066              		.cfi_endproc
 1067              	.LFE85:
 1069              		.section	.text.DT_GetWaitForConversion,"ax",%progbits
 1070              		.align	1
 1071              		.global	DT_GetWaitForConversion
 1072              		.syntax unified
 1073              		.thumb
 1074              		.thumb_func
 1075              		.fpu softvfp
 1077              	DT_GetWaitForConversion:
 1078              	.LVL86:
 1079              	.LFB86:
 427:Core/Src/DallasTemperature.c **** 
 428:Core/Src/DallasTemperature.c **** // gets the value of the waitForConversion flag
 429:Core/Src/DallasTemperature.c **** bool DT_GetWaitForConversion(DallasTemperature_HandleTypeDef* dt)
 430:Core/Src/DallasTemperature.c **** {
 1080              		.loc 1 430 1 is_stmt 1 view -0
 1081              		.cfi_startproc
 1082              		@ args = 0, pretend = 0, frame = 0
 1083              		@ frame_needed = 0, uses_anonymous_args = 0
 1084              		@ link register save eliminated.
 431:Core/Src/DallasTemperature.c **** 	return dt->waitForConversion;
 1085              		.loc 1 431 2 view .LVU245
 432:Core/Src/DallasTemperature.c **** }
ARM GAS  C:\Users\user\AppData\Local\Temp\ccGnldFX.s 			page 29


 1086              		.loc 1 432 1 is_stmt 0 view .LVU246
 1087 0000 407A     		ldrb	r0, [r0, #9]	@ zero_extendqisi2
 1088              	.LVL87:
 1089              		.loc 1 432 1 view .LVU247
 1090 0002 7047     		bx	lr
 1091              		.cfi_endproc
 1092              	.LFE86:
 1094              		.section	.text.DT_SetCheckForConversion,"ax",%progbits
 1095              		.align	1
 1096              		.global	DT_SetCheckForConversion
 1097              		.syntax unified
 1098              		.thumb
 1099              		.thumb_func
 1100              		.fpu softvfp
 1102              	DT_SetCheckForConversion:
 1103              	.LVL88:
 1104              	.LFB87:
 433:Core/Src/DallasTemperature.c **** 
 434:Core/Src/DallasTemperature.c **** // sets the value of the checkForConversion flag
 435:Core/Src/DallasTemperature.c **** // TRUE : function requestTemperature() etc will 'listen' to an IC to determine whether a conversio
 436:Core/Src/DallasTemperature.c **** // FALSE: function requestTemperature() etc will wait a set time (worst case scenario) for a conver
 437:Core/Src/DallasTemperature.c **** void DT_SetCheckForConversion(DallasTemperature_HandleTypeDef* dt, bool flag)
 438:Core/Src/DallasTemperature.c **** {
 1105              		.loc 1 438 1 is_stmt 1 view -0
 1106              		.cfi_startproc
 1107              		@ args = 0, pretend = 0, frame = 0
 1108              		@ frame_needed = 0, uses_anonymous_args = 0
 1109              		@ link register save eliminated.
 439:Core/Src/DallasTemperature.c **** 	dt->checkForConversion = flag;
 1110              		.loc 1 439 2 view .LVU249
 1111              		.loc 1 439 25 is_stmt 0 view .LVU250
 1112 0000 8172     		strb	r1, [r0, #10]
 440:Core/Src/DallasTemperature.c **** }
 1113              		.loc 1 440 1 view .LVU251
 1114 0002 7047     		bx	lr
 1115              		.cfi_endproc
 1116              	.LFE87:
 1118              		.section	.text.DT_GetCheckForConversion,"ax",%progbits
 1119              		.align	1
 1120              		.global	DT_GetCheckForConversion
 1121              		.syntax unified
 1122              		.thumb
 1123              		.thumb_func
 1124              		.fpu softvfp
 1126              	DT_GetCheckForConversion:
 1127              	.LVL89:
 1128              	.LFB88:
 441:Core/Src/DallasTemperature.c **** 
 442:Core/Src/DallasTemperature.c **** // gets the value of the waitForConversion flag
 443:Core/Src/DallasTemperature.c **** bool DT_GetCheckForConversion(DallasTemperature_HandleTypeDef* dt)
 444:Core/Src/DallasTemperature.c **** {
 1129              		.loc 1 444 1 is_stmt 1 view -0
 1130              		.cfi_startproc
 1131              		@ args = 0, pretend = 0, frame = 0
 1132              		@ frame_needed = 0, uses_anonymous_args = 0
 1133              		@ link register save eliminated.
 445:Core/Src/DallasTemperature.c **** 	return dt->checkForConversion;
ARM GAS  C:\Users\user\AppData\Local\Temp\ccGnldFX.s 			page 30


 1134              		.loc 1 445 2 view .LVU253
 446:Core/Src/DallasTemperature.c **** }
 1135              		.loc 1 446 1 is_stmt 0 view .LVU254
 1136 0000 807A     		ldrb	r0, [r0, #10]	@ zero_extendqisi2
 1137              	.LVL90:
 1138              		.loc 1 446 1 view .LVU255
 1139 0002 7047     		bx	lr
 1140              		.cfi_endproc
 1141              	.LFE88:
 1143              		.section	.text.DT_IsConversionComplete,"ax",%progbits
 1144              		.align	1
 1145              		.global	DT_IsConversionComplete
 1146              		.syntax unified
 1147              		.thumb
 1148              		.thumb_func
 1149              		.fpu softvfp
 1151              	DT_IsConversionComplete:
 1152              	.LVL91:
 1153              	.LFB89:
 447:Core/Src/DallasTemperature.c **** 
 448:Core/Src/DallasTemperature.c **** bool DT_IsConversionComplete(DallasTemperature_HandleTypeDef* dt)
 449:Core/Src/DallasTemperature.c **** {
 1154              		.loc 1 449 1 is_stmt 1 view -0
 1155              		.cfi_startproc
 1156              		@ args = 0, pretend = 0, frame = 8
 1157              		@ frame_needed = 0, uses_anonymous_args = 0
 1158              		.loc 1 449 1 is_stmt 0 view .LVU257
 1159 0000 00B5     		push	{lr}
 1160              		.cfi_def_cfa_offset 4
 1161              		.cfi_offset 14, -4
 1162 0002 85B0     		sub	sp, sp, #20
 1163              		.cfi_def_cfa_offset 24
 450:Core/Src/DallasTemperature.c **** 	uint8_t b;
 1164              		.loc 1 450 2 is_stmt 1 view .LVU258
 451:Core/Src/DallasTemperature.c **** 	OW_Send(dt->ow, (uint8_t *) OW_READ_SLOT, 0, &b, 1, 0);
 1165              		.loc 1 451 2 view .LVU259
 1166 0004 0068     		ldr	r0, [r0]
 1167              	.LVL92:
 1168              		.loc 1 451 2 is_stmt 0 view .LVU260
 1169 0006 0022     		movs	r2, #0
 1170 0008 0192     		str	r2, [sp, #4]
 1171 000a 0123     		movs	r3, #1
 1172 000c 0093     		str	r3, [sp]
 1173 000e 0DF10F03 		add	r3, sp, #15
 1174 0012 FF21     		movs	r1, #255
 1175 0014 FFF7FEFF 		bl	OW_Send
 1176              	.LVL93:
 452:Core/Src/DallasTemperature.c **** 
 453:Core/Src/DallasTemperature.c **** 	return (b == 1);
 1177              		.loc 1 453 2 is_stmt 1 view .LVU261
 1178              		.loc 1 453 12 is_stmt 0 view .LVU262
 1179 0018 9DF80F00 		ldrb	r0, [sp, #15]	@ zero_extendqisi2
 454:Core/Src/DallasTemperature.c **** }
 1180              		.loc 1 454 1 view .LVU263
 1181 001c 0128     		cmp	r0, #1
 1182 001e 14BF     		ite	ne
 1183 0020 0020     		movne	r0, #0
ARM GAS  C:\Users\user\AppData\Local\Temp\ccGnldFX.s 			page 31


 1184 0022 0120     		moveq	r0, #1
 1185 0024 05B0     		add	sp, sp, #20
 1186              		.cfi_def_cfa_offset 4
 1187              		@ sp needed
 1188 0026 5DF804FB 		ldr	pc, [sp], #4
 1189              		.cfi_endproc
 1190              	.LFE89:
 1192              		.section	.text.DT_MillisToWaitForConversion,"ax",%progbits
 1193              		.align	1
 1194              		.global	DT_MillisToWaitForConversion
 1195              		.syntax unified
 1196              		.thumb
 1197              		.thumb_func
 1198              		.fpu softvfp
 1200              	DT_MillisToWaitForConversion:
 1201              	.LVL94:
 1202              	.LFB93:
 455:Core/Src/DallasTemperature.c **** 
 456:Core/Src/DallasTemperature.c **** // sends command for all devices on the bus to perform a temperature conversion
 457:Core/Src/DallasTemperature.c **** void DT_RequestTemperatures(DallasTemperature_HandleTypeDef* dt)
 458:Core/Src/DallasTemperature.c **** {
 459:Core/Src/DallasTemperature.c **** 	OW_Send(dt->ow, (uint8_t *) "\xcc\x44", 2, (uint8_t *) NULL, 0, OW_NO_READ);
 460:Core/Src/DallasTemperature.c **** 
 461:Core/Src/DallasTemperature.c **** 	// ASYNC mode?
 462:Core/Src/DallasTemperature.c **** 	if (!dt->waitForConversion)
 463:Core/Src/DallasTemperature.c **** 		return;
 464:Core/Src/DallasTemperature.c **** 
 465:Core/Src/DallasTemperature.c **** 	BlockTillConversionComplete(dt, dt->bitResolution);
 466:Core/Src/DallasTemperature.c **** }
 467:Core/Src/DallasTemperature.c **** 
 468:Core/Src/DallasTemperature.c **** // sends command for one device to perform a temperature by address
 469:Core/Src/DallasTemperature.c **** // returns FALSE if device is disconnected
 470:Core/Src/DallasTemperature.c **** // returns TRUE  otherwise
 471:Core/Src/DallasTemperature.c **** bool DT_RequestTemperaturesByAddress(DallasTemperature_HandleTypeDef* dt, const uint8_t* deviceAddr
 472:Core/Src/DallasTemperature.c **** {
 473:Core/Src/DallasTemperature.c **** 	uint8_t bitResolution = DT_GetResolution(dt, deviceAddress);
 474:Core/Src/DallasTemperature.c **** 
 475:Core/Src/DallasTemperature.c **** 	if (bitResolution == 0)
 476:Core/Src/DallasTemperature.c **** 	{
 477:Core/Src/DallasTemperature.c **** 		return false; //Device disconnected
 478:Core/Src/DallasTemperature.c **** 	}
 479:Core/Src/DallasTemperature.c **** 
 480:Core/Src/DallasTemperature.c **** 	uint8_t query[10]={0x55, 0, 0, 0, 0, 0, 0, 0, 0, STARTCONVO};
 481:Core/Src/DallasTemperature.c **** 	memcpy(&query[1], deviceAddress, 8);
 482:Core/Src/DallasTemperature.c **** 	OW_Send(dt->ow, query, 10, NULL, 0, OW_NO_READ);
 483:Core/Src/DallasTemperature.c **** 
 484:Core/Src/DallasTemperature.c **** 	// ASYNC mode?
 485:Core/Src/DallasTemperature.c **** 	if (!dt->waitForConversion)
 486:Core/Src/DallasTemperature.c **** 		return true;
 487:Core/Src/DallasTemperature.c **** 
 488:Core/Src/DallasTemperature.c **** 	BlockTillConversionComplete(dt, dt->bitResolution);
 489:Core/Src/DallasTemperature.c **** 
 490:Core/Src/DallasTemperature.c **** 	return true;
 491:Core/Src/DallasTemperature.c **** }
 492:Core/Src/DallasTemperature.c **** 
 493:Core/Src/DallasTemperature.c **** // sends command for one device to perform a temp conversion by index
 494:Core/Src/DallasTemperature.c **** bool DT_RequestTemperaturesByIndex(DallasTemperature_HandleTypeDef* dt, uint8_t deviceIndex)
ARM GAS  C:\Users\user\AppData\Local\Temp\ccGnldFX.s 			page 32


 495:Core/Src/DallasTemperature.c **** {
 496:Core/Src/DallasTemperature.c **** 	CurrentDeviceAddress deviceAddress;
 497:Core/Src/DallasTemperature.c **** 	DT_GetAddress(dt, deviceAddress, deviceIndex);
 498:Core/Src/DallasTemperature.c **** 
 499:Core/Src/DallasTemperature.c **** 	return DT_RequestTemperaturesByAddress(dt, deviceAddress);
 500:Core/Src/DallasTemperature.c **** }
 501:Core/Src/DallasTemperature.c **** 
 502:Core/Src/DallasTemperature.c **** // returns number of milliseconds to wait till conversion is complete (based on IC datasheet)
 503:Core/Src/DallasTemperature.c **** int16_t DT_MillisToWaitForConversion(uint8_t bitResolution)
 504:Core/Src/DallasTemperature.c **** {
 1203              		.loc 1 504 1 is_stmt 1 view -0
 1204              		.cfi_startproc
 1205              		@ args = 0, pretend = 0, frame = 0
 1206              		@ frame_needed = 0, uses_anonymous_args = 0
 1207              		@ link register save eliminated.
 505:Core/Src/DallasTemperature.c **** 	switch (bitResolution)
 1208              		.loc 1 505 2 view .LVU265
 1209 0000 0A28     		cmp	r0, #10
 1210 0002 08D0     		beq	.L89
 1211 0004 0B28     		cmp	r0, #11
 1212 0006 08D0     		beq	.L90
 1213 0008 0928     		cmp	r0, #9
 1214 000a 02D0     		beq	.L92
 506:Core/Src/DallasTemperature.c **** 	{
 507:Core/Src/DallasTemperature.c **** 	case 9:
 508:Core/Src/DallasTemperature.c **** 		return 94;
 509:Core/Src/DallasTemperature.c **** 	case 10:
 510:Core/Src/DallasTemperature.c **** 		return 188;
 511:Core/Src/DallasTemperature.c **** 	case 11:
 512:Core/Src/DallasTemperature.c **** 		return 375;
 513:Core/Src/DallasTemperature.c **** 	default:
 514:Core/Src/DallasTemperature.c **** 		return 750;
 1215              		.loc 1 514 10 is_stmt 0 view .LVU266
 1216 000c 40F2EE20 		movw	r0, #750
 1217              	.LVL95:
 515:Core/Src/DallasTemperature.c **** 	}
 516:Core/Src/DallasTemperature.c **** }
 1218              		.loc 1 516 1 view .LVU267
 1219 0010 7047     		bx	lr
 1220              	.LVL96:
 1221              	.L92:
 505:Core/Src/DallasTemperature.c **** 	{
 1222              		.loc 1 505 2 view .LVU268
 1223 0012 5E20     		movs	r0, #94
 1224              	.LVL97:
 505:Core/Src/DallasTemperature.c **** 	{
 1225              		.loc 1 505 2 view .LVU269
 1226 0014 7047     		bx	lr
 1227              	.LVL98:
 1228              	.L89:
 510:Core/Src/DallasTemperature.c **** 	case 11:
 1229              		.loc 1 510 10 view .LVU270
 1230 0016 BC20     		movs	r0, #188
 1231              	.LVL99:
 510:Core/Src/DallasTemperature.c **** 	case 11:
 1232              		.loc 1 510 10 view .LVU271
 1233 0018 7047     		bx	lr
ARM GAS  C:\Users\user\AppData\Local\Temp\ccGnldFX.s 			page 33


 1234              	.LVL100:
 1235              	.L90:
 512:Core/Src/DallasTemperature.c **** 	default:
 1236              		.loc 1 512 10 view .LVU272
 1237 001a 40F27710 		movw	r0, #375
 1238              	.LVL101:
 512:Core/Src/DallasTemperature.c **** 	default:
 1239              		.loc 1 512 10 view .LVU273
 1240 001e 7047     		bx	lr
 1241              		.cfi_endproc
 1242              	.LFE93:
 1244              		.section	.text.BlockTillConversionComplete,"ax",%progbits
 1245              		.align	1
 1246              		.syntax unified
 1247              		.thumb
 1248              		.thumb_func
 1249              		.fpu softvfp
 1251              	BlockTillConversionComplete:
 1252              	.LVL102:
 1253              	.LFB65:
  48:Core/Src/DallasTemperature.c **** 	int delms = DT_MillisToWaitForConversion(bitResolution);
 1254              		.loc 1 48 1 is_stmt 1 view -0
 1255              		.cfi_startproc
 1256              		@ args = 0, pretend = 0, frame = 0
 1257              		@ frame_needed = 0, uses_anonymous_args = 0
  48:Core/Src/DallasTemperature.c **** 	int delms = DT_MillisToWaitForConversion(bitResolution);
 1258              		.loc 1 48 1 is_stmt 0 view .LVU275
 1259 0000 70B5     		push	{r4, r5, r6, lr}
 1260              		.cfi_def_cfa_offset 16
 1261              		.cfi_offset 4, -16
 1262              		.cfi_offset 5, -12
 1263              		.cfi_offset 6, -8
 1264              		.cfi_offset 14, -4
 1265 0002 0446     		mov	r4, r0
  49:Core/Src/DallasTemperature.c **** 
 1266              		.loc 1 49 2 is_stmt 1 view .LVU276
  49:Core/Src/DallasTemperature.c **** 
 1267              		.loc 1 49 14 is_stmt 0 view .LVU277
 1268 0004 0846     		mov	r0, r1
 1269              	.LVL103:
  49:Core/Src/DallasTemperature.c **** 
 1270              		.loc 1 49 14 view .LVU278
 1271 0006 FFF7FEFF 		bl	DT_MillisToWaitForConversion
 1272              	.LVL104:
  49:Core/Src/DallasTemperature.c **** 
 1273              		.loc 1 49 14 view .LVU279
 1274 000a 0546     		mov	r5, r0
 1275              	.LVL105:
  51:Core/Src/DallasTemperature.c **** 	{
 1276              		.loc 1 51 2 is_stmt 1 view .LVU280
  51:Core/Src/DallasTemperature.c **** 	{
 1277              		.loc 1 51 8 is_stmt 0 view .LVU281
 1278 000c A37A     		ldrb	r3, [r4, #10]	@ zero_extendqisi2
  51:Core/Src/DallasTemperature.c **** 	{
 1279              		.loc 1 51 5 view .LVU282
 1280 000e 0BB1     		cbz	r3, .L94
  51:Core/Src/DallasTemperature.c **** 	{
ARM GAS  C:\Users\user\AppData\Local\Temp\ccGnldFX.s 			page 34


 1281              		.loc 1 51 35 discriminator 1 view .LVU283
 1282 0010 A379     		ldrb	r3, [r4, #6]	@ zero_extendqisi2
  51:Core/Src/DallasTemperature.c **** 	{
 1283              		.loc 1 51 29 discriminator 1 view .LVU284
 1284 0012 4BB1     		cbz	r3, .L99
 1285              	.L94:
  61:Core/Src/DallasTemperature.c **** 		HAL_Delay(delms);
 1286              		.loc 1 61 3 is_stmt 1 view .LVU285
 1287 0014 2046     		mov	r0, r4
 1288 0016 FFF7FEFF 		bl	ActivateExternalPullup
 1289              	.LVL106:
  62:Core/Src/DallasTemperature.c **** 		DeactivateExternalPullup(dt);
 1290              		.loc 1 62 3 view .LVU286
 1291 001a 2846     		mov	r0, r5
 1292 001c FFF7FEFF 		bl	HAL_Delay
 1293              	.LVL107:
  63:Core/Src/DallasTemperature.c **** 	}
 1294              		.loc 1 63 3 view .LVU287
 1295 0020 2046     		mov	r0, r4
 1296 0022 FFF7FEFF 		bl	DeactivateExternalPullup
 1297              	.LVL108:
 1298              	.L93:
  65:Core/Src/DallasTemperature.c **** 
 1299              		.loc 1 65 1 is_stmt 0 view .LVU288
 1300 0026 70BD     		pop	{r4, r5, r6, pc}
 1301              	.LVL109:
 1302              	.L99:
 1303              	.LBB3:
  53:Core/Src/DallasTemperature.c **** 		while (!DT_IsConversionComplete(dt) && (HAL_GetTick() - delms < now))
 1304              		.loc 1 53 3 is_stmt 1 view .LVU289
  53:Core/Src/DallasTemperature.c **** 		while (!DT_IsConversionComplete(dt) && (HAL_GetTick() - delms < now))
 1305              		.loc 1 53 23 is_stmt 0 view .LVU290
 1306 0028 FFF7FEFF 		bl	HAL_GetTick
 1307              	.LVL110:
 1308 002c 0646     		mov	r6, r0
 1309              	.LVL111:
  54:Core/Src/DallasTemperature.c **** 		{
 1310              		.loc 1 54 3 is_stmt 1 view .LVU291
  54:Core/Src/DallasTemperature.c **** 		{
 1311              		.loc 1 54 9 is_stmt 0 view .LVU292
 1312 002e 00E0     		b	.L95
 1313              	.LVL112:
 1314              	.L97:
  56:Core/Src/DallasTemperature.c **** 		}
 1315              		.loc 1 56 4 is_stmt 1 view .LVU293
 1316              		.syntax unified
 1317              	@ 56 "Core/Src/DallasTemperature.c" 1
 1318 0030 00BF     		nop
 1319              	@ 0 "" 2
 1320              		.thumb
 1321              		.syntax unified
 1322              	.L95:
  54:Core/Src/DallasTemperature.c **** 		{
 1323              		.loc 1 54 9 view .LVU294
  54:Core/Src/DallasTemperature.c **** 		{
 1324              		.loc 1 54 11 is_stmt 0 view .LVU295
 1325 0032 2046     		mov	r0, r4
ARM GAS  C:\Users\user\AppData\Local\Temp\ccGnldFX.s 			page 35


 1326 0034 FFF7FEFF 		bl	DT_IsConversionComplete
 1327              	.LVL113:
  54:Core/Src/DallasTemperature.c **** 		{
 1328              		.loc 1 54 9 view .LVU296
 1329 0038 0028     		cmp	r0, #0
 1330 003a F4D1     		bne	.L93
  54:Core/Src/DallasTemperature.c **** 		{
 1331              		.loc 1 54 43 discriminator 1 view .LVU297
 1332 003c FFF7FEFF 		bl	HAL_GetTick
 1333              	.LVL114:
  54:Core/Src/DallasTemperature.c **** 		{
 1334              		.loc 1 54 57 discriminator 1 view .LVU298
 1335 0040 431B     		subs	r3, r0, r5
  54:Core/Src/DallasTemperature.c **** 		{
 1336              		.loc 1 54 39 discriminator 1 view .LVU299
 1337 0042 B342     		cmp	r3, r6
 1338 0044 F4D3     		bcc	.L97
 1339 0046 EEE7     		b	.L93
 1340              	.LBE3:
 1341              		.cfi_endproc
 1342              	.LFE65:
 1344              		.section	.rodata.DT_RequestTemperatures.str1.4,"aMS",%progbits,1
 1345              		.align	2
 1346              	.LC2:
 1347 0000 CC4400   		.ascii	"\314D\000"
 1348              		.section	.text.DT_RequestTemperatures,"ax",%progbits
 1349              		.align	1
 1350              		.global	DT_RequestTemperatures
 1351              		.syntax unified
 1352              		.thumb
 1353              		.thumb_func
 1354              		.fpu softvfp
 1356              	DT_RequestTemperatures:
 1357              	.LVL115:
 1358              	.LFB90:
 458:Core/Src/DallasTemperature.c **** 	OW_Send(dt->ow, (uint8_t *) "\xcc\x44", 2, (uint8_t *) NULL, 0, OW_NO_READ);
 1359              		.loc 1 458 1 is_stmt 1 view -0
 1360              		.cfi_startproc
 1361              		@ args = 0, pretend = 0, frame = 0
 1362              		@ frame_needed = 0, uses_anonymous_args = 0
 458:Core/Src/DallasTemperature.c **** 	OW_Send(dt->ow, (uint8_t *) "\xcc\x44", 2, (uint8_t *) NULL, 0, OW_NO_READ);
 1363              		.loc 1 458 1 is_stmt 0 view .LVU301
 1364 0000 10B5     		push	{r4, lr}
 1365              		.cfi_def_cfa_offset 8
 1366              		.cfi_offset 4, -8
 1367              		.cfi_offset 14, -4
 1368 0002 82B0     		sub	sp, sp, #8
 1369              		.cfi_def_cfa_offset 16
 1370 0004 0446     		mov	r4, r0
 459:Core/Src/DallasTemperature.c **** 
 1371              		.loc 1 459 2 is_stmt 1 view .LVU302
 1372 0006 FF23     		movs	r3, #255
 1373 0008 0193     		str	r3, [sp, #4]
 1374 000a 0023     		movs	r3, #0
 1375 000c 0093     		str	r3, [sp]
 1376 000e 0222     		movs	r2, #2
 1377 0010 0649     		ldr	r1, .L104
ARM GAS  C:\Users\user\AppData\Local\Temp\ccGnldFX.s 			page 36


 1378 0012 0068     		ldr	r0, [r0]
 1379              	.LVL116:
 459:Core/Src/DallasTemperature.c **** 
 1380              		.loc 1 459 2 is_stmt 0 view .LVU303
 1381 0014 FFF7FEFF 		bl	OW_Send
 1382              	.LVL117:
 462:Core/Src/DallasTemperature.c **** 		return;
 1383              		.loc 1 462 2 is_stmt 1 view .LVU304
 462:Core/Src/DallasTemperature.c **** 		return;
 1384              		.loc 1 462 9 is_stmt 0 view .LVU305
 1385 0018 637A     		ldrb	r3, [r4, #9]	@ zero_extendqisi2
 462:Core/Src/DallasTemperature.c **** 		return;
 1386              		.loc 1 462 5 view .LVU306
 1387 001a 0BB9     		cbnz	r3, .L103
 1388              	.L100:
 466:Core/Src/DallasTemperature.c **** 
 1389              		.loc 1 466 1 view .LVU307
 1390 001c 02B0     		add	sp, sp, #8
 1391              		.cfi_remember_state
 1392              		.cfi_def_cfa_offset 8
 1393              		@ sp needed
 1394 001e 10BD     		pop	{r4, pc}
 1395              	.LVL118:
 1396              	.L103:
 1397              		.cfi_restore_state
 465:Core/Src/DallasTemperature.c **** }
 1398              		.loc 1 465 2 is_stmt 1 view .LVU308
 1399 0020 217A     		ldrb	r1, [r4, #8]	@ zero_extendqisi2
 1400 0022 2046     		mov	r0, r4
 1401 0024 FFF7FEFF 		bl	BlockTillConversionComplete
 1402              	.LVL119:
 1403 0028 F8E7     		b	.L100
 1404              	.L105:
 1405 002a 00BF     		.align	2
 1406              	.L104:
 1407 002c 00000000 		.word	.LC2
 1408              		.cfi_endproc
 1409              	.LFE90:
 1411              		.section	.text.DT_RequestTemperaturesByAddress,"ax",%progbits
 1412              		.align	1
 1413              		.global	DT_RequestTemperaturesByAddress
 1414              		.syntax unified
 1415              		.thumb
 1416              		.thumb_func
 1417              		.fpu softvfp
 1419              	DT_RequestTemperaturesByAddress:
 1420              	.LVL120:
 1421              	.LFB91:
 472:Core/Src/DallasTemperature.c **** 	uint8_t bitResolution = DT_GetResolution(dt, deviceAddress);
 1422              		.loc 1 472 1 view -0
 1423              		.cfi_startproc
 1424              		@ args = 0, pretend = 0, frame = 16
 1425              		@ frame_needed = 0, uses_anonymous_args = 0
 472:Core/Src/DallasTemperature.c **** 	uint8_t bitResolution = DT_GetResolution(dt, deviceAddress);
 1426              		.loc 1 472 1 is_stmt 0 view .LVU310
 1427 0000 30B5     		push	{r4, r5, lr}
 1428              		.cfi_def_cfa_offset 12
ARM GAS  C:\Users\user\AppData\Local\Temp\ccGnldFX.s 			page 37


 1429              		.cfi_offset 4, -12
 1430              		.cfi_offset 5, -8
 1431              		.cfi_offset 14, -4
 1432 0002 87B0     		sub	sp, sp, #28
 1433              		.cfi_def_cfa_offset 40
 1434 0004 0446     		mov	r4, r0
 1435 0006 0D46     		mov	r5, r1
 473:Core/Src/DallasTemperature.c **** 
 1436              		.loc 1 473 2 is_stmt 1 view .LVU311
 473:Core/Src/DallasTemperature.c **** 
 1437              		.loc 1 473 26 is_stmt 0 view .LVU312
 1438 0008 FFF7FEFF 		bl	DT_GetResolution
 1439              	.LVL121:
 475:Core/Src/DallasTemperature.c **** 	{
 1440              		.loc 1 475 2 is_stmt 1 view .LVU313
 475:Core/Src/DallasTemperature.c **** 	{
 1441              		.loc 1 475 5 is_stmt 0 view .LVU314
 1442 000c 18B9     		cbnz	r0, .L111
 477:Core/Src/DallasTemperature.c **** 	}
 1443              		.loc 1 477 10 view .LVU315
 1444 000e 0025     		movs	r5, #0
 1445              	.LVL122:
 1446              	.L107:
 491:Core/Src/DallasTemperature.c **** 
 1447              		.loc 1 491 1 view .LVU316
 1448 0010 2846     		mov	r0, r5
 1449 0012 07B0     		add	sp, sp, #28
 1450              		.cfi_remember_state
 1451              		.cfi_def_cfa_offset 12
 1452              		@ sp needed
 1453 0014 30BD     		pop	{r4, r5, pc}
 1454              	.LVL123:
 1455              	.L111:
 1456              		.cfi_restore_state
 480:Core/Src/DallasTemperature.c **** 	memcpy(&query[1], deviceAddress, 8);
 1457              		.loc 1 480 2 is_stmt 1 view .LVU317
 480:Core/Src/DallasTemperature.c **** 	memcpy(&query[1], deviceAddress, 8);
 1458              		.loc 1 480 10 is_stmt 0 view .LVU318
 1459 0016 03AB     		add	r3, sp, #12
 1460 0018 0D4A     		ldr	r2, .L113
 1461 001a 07CA     		ldm	r2, {r0, r1, r2}
 1462              	.LVL124:
 480:Core/Src/DallasTemperature.c **** 	memcpy(&query[1], deviceAddress, 8);
 1463              		.loc 1 480 10 view .LVU319
 1464 001c 03C3     		stmia	r3!, {r0, r1}
 1465 001e 1A80     		strh	r2, [r3]	@ movhi
 481:Core/Src/DallasTemperature.c **** 	OW_Send(dt->ow, query, 10, NULL, 0, OW_NO_READ);
 1466              		.loc 1 481 2 is_stmt 1 view .LVU320
 1467 0020 2A68     		ldr	r2, [r5]	@ unaligned
 1468 0022 6B68     		ldr	r3, [r5, #4]	@ unaligned
 1469 0024 CDF80D20 		str	r2, [sp, #13]	@ unaligned
 1470 0028 CDF81130 		str	r3, [sp, #17]	@ unaligned
 482:Core/Src/DallasTemperature.c **** 
 1471              		.loc 1 482 2 view .LVU321
 1472 002c FF23     		movs	r3, #255
 1473 002e 0193     		str	r3, [sp, #4]
 1474 0030 0023     		movs	r3, #0
ARM GAS  C:\Users\user\AppData\Local\Temp\ccGnldFX.s 			page 38


 1475 0032 0093     		str	r3, [sp]
 1476 0034 0A22     		movs	r2, #10
 1477 0036 03A9     		add	r1, sp, #12
 1478 0038 2068     		ldr	r0, [r4]
 1479 003a FFF7FEFF 		bl	OW_Send
 1480              	.LVL125:
 485:Core/Src/DallasTemperature.c **** 		return true;
 1481              		.loc 1 485 2 view .LVU322
 485:Core/Src/DallasTemperature.c **** 		return true;
 1482              		.loc 1 485 9 is_stmt 0 view .LVU323
 1483 003e 657A     		ldrb	r5, [r4, #9]	@ zero_extendqisi2
 1484              	.LVL126:
 485:Core/Src/DallasTemperature.c **** 		return true;
 1485              		.loc 1 485 5 view .LVU324
 1486 0040 0DB9     		cbnz	r5, .L112
 486:Core/Src/DallasTemperature.c **** 
 1487              		.loc 1 486 10 view .LVU325
 1488 0042 0125     		movs	r5, #1
 1489 0044 E4E7     		b	.L107
 1490              	.L112:
 488:Core/Src/DallasTemperature.c **** 
 1491              		.loc 1 488 2 is_stmt 1 view .LVU326
 1492 0046 217A     		ldrb	r1, [r4, #8]	@ zero_extendqisi2
 1493 0048 2046     		mov	r0, r4
 1494 004a FFF7FEFF 		bl	BlockTillConversionComplete
 1495              	.LVL127:
 490:Core/Src/DallasTemperature.c **** }
 1496              		.loc 1 490 2 view .LVU327
 490:Core/Src/DallasTemperature.c **** }
 1497              		.loc 1 490 9 is_stmt 0 view .LVU328
 1498 004e DFE7     		b	.L107
 1499              	.L114:
 1500              		.align	2
 1501              	.L113:
 1502 0050 20000000 		.word	.LANCHOR0+32
 1503              		.cfi_endproc
 1504              	.LFE91:
 1506              		.section	.text.DT_RequestTemperaturesByIndex,"ax",%progbits
 1507              		.align	1
 1508              		.global	DT_RequestTemperaturesByIndex
 1509              		.syntax unified
 1510              		.thumb
 1511              		.thumb_func
 1512              		.fpu softvfp
 1514              	DT_RequestTemperaturesByIndex:
 1515              	.LVL128:
 1516              	.LFB92:
 495:Core/Src/DallasTemperature.c **** 	CurrentDeviceAddress deviceAddress;
 1517              		.loc 1 495 1 is_stmt 1 view -0
 1518              		.cfi_startproc
 1519              		@ args = 0, pretend = 0, frame = 8
 1520              		@ frame_needed = 0, uses_anonymous_args = 0
 495:Core/Src/DallasTemperature.c **** 	CurrentDeviceAddress deviceAddress;
 1521              		.loc 1 495 1 is_stmt 0 view .LVU330
 1522 0000 10B5     		push	{r4, lr}
 1523              		.cfi_def_cfa_offset 8
 1524              		.cfi_offset 4, -8
ARM GAS  C:\Users\user\AppData\Local\Temp\ccGnldFX.s 			page 39


 1525              		.cfi_offset 14, -4
 1526 0002 82B0     		sub	sp, sp, #8
 1527              		.cfi_def_cfa_offset 16
 1528 0004 0446     		mov	r4, r0
 1529 0006 0A46     		mov	r2, r1
 496:Core/Src/DallasTemperature.c **** 	DT_GetAddress(dt, deviceAddress, deviceIndex);
 1530              		.loc 1 496 2 is_stmt 1 view .LVU331
 497:Core/Src/DallasTemperature.c **** 
 1531              		.loc 1 497 2 view .LVU332
 1532 0008 6946     		mov	r1, sp
 1533              	.LVL129:
 497:Core/Src/DallasTemperature.c **** 
 1534              		.loc 1 497 2 is_stmt 0 view .LVU333
 1535 000a FFF7FEFF 		bl	DT_GetAddress
 1536              	.LVL130:
 499:Core/Src/DallasTemperature.c **** }
 1537              		.loc 1 499 2 is_stmt 1 view .LVU334
 499:Core/Src/DallasTemperature.c **** }
 1538              		.loc 1 499 9 is_stmt 0 view .LVU335
 1539 000e 6946     		mov	r1, sp
 1540 0010 2046     		mov	r0, r4
 1541 0012 FFF7FEFF 		bl	DT_RequestTemperaturesByAddress
 1542              	.LVL131:
 500:Core/Src/DallasTemperature.c **** 
 1543              		.loc 1 500 1 view .LVU336
 1544 0016 02B0     		add	sp, sp, #8
 1545              		.cfi_def_cfa_offset 8
 1546              		@ sp needed
 1547 0018 10BD     		pop	{r4, pc}
 500:Core/Src/DallasTemperature.c **** 
 1548              		.loc 1 500 1 view .LVU337
 1549              		.cfi_endproc
 1550              	.LFE92:
 1552              		.section	.text.DT_SaveScratchPad,"ax",%progbits
 1553              		.align	1
 1554              		.global	DT_SaveScratchPad
 1555              		.syntax unified
 1556              		.thumb
 1557              		.thumb_func
 1558              		.fpu softvfp
 1560              	DT_SaveScratchPad:
 1561              	.LVL132:
 1562              	.LFB95:
 517:Core/Src/DallasTemperature.c **** 
 518:Core/Src/DallasTemperature.c **** // Sends command to one device to save values from scratchpad to EEPROM by index
 519:Core/Src/DallasTemperature.c **** // Returns true if no errors were encountered, false indicates failure
 520:Core/Src/DallasTemperature.c **** bool DT_SaveScratchPadByIndex(DallasTemperature_HandleTypeDef* dt, uint8_t deviceIndex)
 521:Core/Src/DallasTemperature.c **** {
 522:Core/Src/DallasTemperature.c **** 	CurrentDeviceAddress deviceAddress;
 523:Core/Src/DallasTemperature.c ****   if (!DT_GetAddress(dt, deviceAddress, deviceIndex)) return false;
 524:Core/Src/DallasTemperature.c **** 
 525:Core/Src/DallasTemperature.c ****   return DT_SaveScratchPad(dt, deviceAddress);
 526:Core/Src/DallasTemperature.c **** }
 527:Core/Src/DallasTemperature.c **** 
 528:Core/Src/DallasTemperature.c **** // Sends command to one or more devices to save values from scratchpad to EEPROM
 529:Core/Src/DallasTemperature.c **** // If optional argument deviceAddress is omitted the command is send to all devices
 530:Core/Src/DallasTemperature.c **** // Returns true if no errors were encountered, false indicates failure
ARM GAS  C:\Users\user\AppData\Local\Temp\ccGnldFX.s 			page 40


 531:Core/Src/DallasTemperature.c **** bool DT_SaveScratchPad(DallasTemperature_HandleTypeDef* dt, const uint8_t* deviceAddress)
 532:Core/Src/DallasTemperature.c **** {
 1563              		.loc 1 532 1 is_stmt 1 view -0
 1564              		.cfi_startproc
 1565              		@ args = 0, pretend = 0, frame = 16
 1566              		@ frame_needed = 0, uses_anonymous_args = 0
 1567              		.loc 1 532 1 is_stmt 0 view .LVU339
 1568 0000 30B5     		push	{r4, r5, lr}
 1569              		.cfi_def_cfa_offset 12
 1570              		.cfi_offset 4, -12
 1571              		.cfi_offset 5, -8
 1572              		.cfi_offset 14, -4
 1573 0002 87B0     		sub	sp, sp, #28
 1574              		.cfi_def_cfa_offset 40
 1575 0004 0446     		mov	r4, r0
 1576 0006 0D46     		mov	r5, r1
 533:Core/Src/DallasTemperature.c **** 	uint8_t query[10]={0, 0, 0, 0, 0, 0, 0, 0, 0, 0};
 1577              		.loc 1 533 2 is_stmt 1 view .LVU340
 1578              		.loc 1 533 10 is_stmt 0 view .LVU341
 1579 0008 03AB     		add	r3, sp, #12
 1580 000a 244A     		ldr	r2, .L126
 1581 000c 07CA     		ldm	r2, {r0, r1, r2}
 1582              	.LVL133:
 1583              		.loc 1 533 10 view .LVU342
 1584 000e 03C3     		stmia	r3!, {r0, r1}
 1585 0010 1A80     		strh	r2, [r3]	@ movhi
 534:Core/Src/DallasTemperature.c **** 
 535:Core/Src/DallasTemperature.c **** 	if (OW_Reset(dt->ow) == 0)
 1586              		.loc 1 535 2 is_stmt 1 view .LVU343
 1587              		.loc 1 535 6 is_stmt 0 view .LVU344
 1588 0012 2068     		ldr	r0, [r4]
 1589 0014 FFF7FEFF 		bl	OW_Reset
 1590              	.LVL134:
 1591              		.loc 1 535 5 view .LVU345
 1592 0018 0028     		cmp	r0, #0
 1593 001a 3DD0     		beq	.L123
 536:Core/Src/DallasTemperature.c **** 		return false;
 537:Core/Src/DallasTemperature.c **** 
 538:Core/Src/DallasTemperature.c ****   if (deviceAddress == NULL)
 1594              		.loc 1 538 3 is_stmt 1 view .LVU346
 1595              		.loc 1 538 6 is_stmt 0 view .LVU347
 1596 001c 15B3     		cbz	r5, .L125
 539:Core/Src/DallasTemperature.c ****   {
 540:Core/Src/DallasTemperature.c **** 	  query[0] = 0xCC;
 541:Core/Src/DallasTemperature.c **** 	  query[1] = COPYSCRATCH;
 542:Core/Src/DallasTemperature.c **** 	  OW_Send(dt->ow, query, 2, NULL, 0, OW_NO_READ);
 543:Core/Src/DallasTemperature.c ****   }
 544:Core/Src/DallasTemperature.c ****   else
 545:Core/Src/DallasTemperature.c ****   {
 546:Core/Src/DallasTemperature.c **** 	  query[0] = 0x55;
 1597              		.loc 1 546 4 is_stmt 1 view .LVU348
 1598              		.loc 1 546 13 is_stmt 0 view .LVU349
 1599 001e 5523     		movs	r3, #85
 1600 0020 8DF80C30 		strb	r3, [sp, #12]
 547:Core/Src/DallasTemperature.c **** 	  memcpy(&query[1], deviceAddress, 8);
 1601              		.loc 1 547 4 is_stmt 1 view .LVU350
 1602 0024 2A68     		ldr	r2, [r5]	@ unaligned
ARM GAS  C:\Users\user\AppData\Local\Temp\ccGnldFX.s 			page 41


 1603 0026 6B68     		ldr	r3, [r5, #4]	@ unaligned
 1604 0028 CDF80D20 		str	r2, [sp, #13]	@ unaligned
 1605 002c CDF81130 		str	r3, [sp, #17]	@ unaligned
 548:Core/Src/DallasTemperature.c **** 	  query[9] = COPYSCRATCH;
 1606              		.loc 1 548 4 view .LVU351
 1607              		.loc 1 548 13 is_stmt 0 view .LVU352
 1608 0030 4823     		movs	r3, #72
 1609 0032 8DF81530 		strb	r3, [sp, #21]
 549:Core/Src/DallasTemperature.c **** 	  OW_Send(dt->ow, query, 10, NULL, 0, OW_NO_READ);
 1610              		.loc 1 549 4 is_stmt 1 view .LVU353
 1611 0036 FF23     		movs	r3, #255
 1612 0038 0193     		str	r3, [sp, #4]
 1613 003a 0023     		movs	r3, #0
 1614 003c 0093     		str	r3, [sp]
 1615 003e 0A22     		movs	r2, #10
 1616 0040 03A9     		add	r1, sp, #12
 1617 0042 2068     		ldr	r0, [r4]
 1618 0044 FFF7FEFF 		bl	OW_Send
 1619              	.LVL135:
 1620              	.L120:
 550:Core/Src/DallasTemperature.c ****   }
 551:Core/Src/DallasTemperature.c **** 
 552:Core/Src/DallasTemperature.c ****   // Specification: NV Write Cycle Time is typically 2ms, max 10ms
 553:Core/Src/DallasTemperature.c ****   // Waiting 20ms to allow for sensors that take longer in practice
 554:Core/Src/DallasTemperature.c ****   if (!dt->parasite)
 1621              		.loc 1 554 3 view .LVU354
 1622              		.loc 1 554 10 is_stmt 0 view .LVU355
 1623 0048 A379     		ldrb	r3, [r4, #6]	@ zero_extendqisi2
 1624              		.loc 1 554 6 view .LVU356
 1625 004a DBB9     		cbnz	r3, .L121
 555:Core/Src/DallasTemperature.c ****   {
 556:Core/Src/DallasTemperature.c ****     HAL_Delay(20);
 1626              		.loc 1 556 5 is_stmt 1 view .LVU357
 1627 004c 1420     		movs	r0, #20
 1628 004e FFF7FEFF 		bl	HAL_Delay
 1629              	.LVL136:
 1630              	.L122:
 557:Core/Src/DallasTemperature.c ****   }
 558:Core/Src/DallasTemperature.c ****   else
 559:Core/Src/DallasTemperature.c ****   {
 560:Core/Src/DallasTemperature.c **** 
 561:Core/Src/DallasTemperature.c **** 	ActivateExternalPullup(dt);
 562:Core/Src/DallasTemperature.c ****     HAL_Delay(20);
 563:Core/Src/DallasTemperature.c ****     DeactivateExternalPullup(dt);
 564:Core/Src/DallasTemperature.c ****   }
 565:Core/Src/DallasTemperature.c **** 
 566:Core/Src/DallasTemperature.c ****   return OW_Reset(dt->ow) == 1;
 1631              		.loc 1 566 3 view .LVU358
 1632              		.loc 1 566 10 is_stmt 0 view .LVU359
 1633 0052 2068     		ldr	r0, [r4]
 1634 0054 FFF7FEFF 		bl	OW_Reset
 1635              	.LVL137:
 1636              		.loc 1 566 27 view .LVU360
 1637 0058 0128     		cmp	r0, #1
 1638 005a 14BF     		ite	ne
 1639 005c 0020     		movne	r0, #0
 1640 005e 0120     		moveq	r0, #1
ARM GAS  C:\Users\user\AppData\Local\Temp\ccGnldFX.s 			page 42


 1641              	.L118:
 567:Core/Src/DallasTemperature.c **** }
 1642              		.loc 1 567 1 view .LVU361
 1643 0060 07B0     		add	sp, sp, #28
 1644              		.cfi_remember_state
 1645              		.cfi_def_cfa_offset 12
 1646              		@ sp needed
 1647 0062 30BD     		pop	{r4, r5, pc}
 1648              	.LVL138:
 1649              	.L125:
 1650              		.cfi_restore_state
 540:Core/Src/DallasTemperature.c **** 	  query[1] = COPYSCRATCH;
 1651              		.loc 1 540 4 is_stmt 1 view .LVU362
 540:Core/Src/DallasTemperature.c **** 	  query[1] = COPYSCRATCH;
 1652              		.loc 1 540 13 is_stmt 0 view .LVU363
 1653 0064 CC23     		movs	r3, #204
 1654 0066 8DF80C30 		strb	r3, [sp, #12]
 541:Core/Src/DallasTemperature.c **** 	  OW_Send(dt->ow, query, 2, NULL, 0, OW_NO_READ);
 1655              		.loc 1 541 4 is_stmt 1 view .LVU364
 541:Core/Src/DallasTemperature.c **** 	  OW_Send(dt->ow, query, 2, NULL, 0, OW_NO_READ);
 1656              		.loc 1 541 13 is_stmt 0 view .LVU365
 1657 006a 4823     		movs	r3, #72
 1658 006c 8DF80D30 		strb	r3, [sp, #13]
 542:Core/Src/DallasTemperature.c ****   }
 1659              		.loc 1 542 4 is_stmt 1 view .LVU366
 1660 0070 FF23     		movs	r3, #255
 1661 0072 0193     		str	r3, [sp, #4]
 1662 0074 0023     		movs	r3, #0
 1663 0076 0093     		str	r3, [sp]
 1664 0078 0222     		movs	r2, #2
 1665 007a 03A9     		add	r1, sp, #12
 1666 007c 2068     		ldr	r0, [r4]
 1667 007e FFF7FEFF 		bl	OW_Send
 1668              	.LVL139:
 1669 0082 E1E7     		b	.L120
 1670              	.L121:
 561:Core/Src/DallasTemperature.c ****     HAL_Delay(20);
 1671              		.loc 1 561 2 view .LVU367
 1672 0084 2046     		mov	r0, r4
 1673 0086 FFF7FEFF 		bl	ActivateExternalPullup
 1674              	.LVL140:
 562:Core/Src/DallasTemperature.c ****     DeactivateExternalPullup(dt);
 1675              		.loc 1 562 5 view .LVU368
 1676 008a 1420     		movs	r0, #20
 1677 008c FFF7FEFF 		bl	HAL_Delay
 1678              	.LVL141:
 563:Core/Src/DallasTemperature.c ****   }
 1679              		.loc 1 563 5 view .LVU369
 1680 0090 2046     		mov	r0, r4
 1681 0092 FFF7FEFF 		bl	DeactivateExternalPullup
 1682              	.LVL142:
 1683 0096 DCE7     		b	.L122
 1684              	.L123:
 536:Core/Src/DallasTemperature.c **** 
 1685              		.loc 1 536 10 is_stmt 0 view .LVU370
 1686 0098 0020     		movs	r0, #0
 1687 009a E1E7     		b	.L118
ARM GAS  C:\Users\user\AppData\Local\Temp\ccGnldFX.s 			page 43


 1688              	.L127:
 1689              		.align	2
 1690              	.L126:
 1691 009c 2C000000 		.word	.LANCHOR0+44
 1692              		.cfi_endproc
 1693              	.LFE95:
 1695              		.section	.text.DT_WriteScratchPad,"ax",%progbits
 1696              		.align	1
 1697              		.global	DT_WriteScratchPad
 1698              		.syntax unified
 1699              		.thumb
 1700              		.thumb_func
 1701              		.fpu softvfp
 1703              	DT_WriteScratchPad:
 1704              	.LVL143:
 1705              	.LFB79:
 250:Core/Src/DallasTemperature.c **** 	uint8_t query[13]={0x55, 0, 0, 0, 0, 0, 0, 0, 0, WRITESCRATCH, scratchPad[HIGH_ALARM_TEMP], scratc
 1706              		.loc 1 250 1 is_stmt 1 view -0
 1707              		.cfi_startproc
 1708              		@ args = 0, pretend = 0, frame = 16
 1709              		@ frame_needed = 0, uses_anonymous_args = 0
 250:Core/Src/DallasTemperature.c **** 	uint8_t query[13]={0x55, 0, 0, 0, 0, 0, 0, 0, 0, WRITESCRATCH, scratchPad[HIGH_ALARM_TEMP], scratc
 1710              		.loc 1 250 1 is_stmt 0 view .LVU372
 1711 0000 30B5     		push	{r4, r5, lr}
 1712              		.cfi_def_cfa_offset 12
 1713              		.cfi_offset 4, -12
 1714              		.cfi_offset 5, -8
 1715              		.cfi_offset 14, -4
 1716 0002 87B0     		sub	sp, sp, #28
 1717              		.cfi_def_cfa_offset 40
 1718 0004 0546     		mov	r5, r0
 1719 0006 0C46     		mov	r4, r1
 251:Core/Src/DallasTemperature.c **** 	memcpy(&query[1], deviceAddress, 8);
 1720              		.loc 1 251 2 is_stmt 1 view .LVU373
 251:Core/Src/DallasTemperature.c **** 	memcpy(&query[1], deviceAddress, 8);
 1721              		.loc 1 251 10 is_stmt 0 view .LVU374
 1722 0008 5523     		movs	r3, #85
 1723 000a 8DF80830 		strb	r3, [sp, #8]
 1724 000e 0023     		movs	r3, #0
 1725 0010 8DF80930 		strb	r3, [sp, #9]
 1726 0014 8DF80A30 		strb	r3, [sp, #10]
 1727 0018 8DF80B30 		strb	r3, [sp, #11]
 1728 001c 8DF80C30 		strb	r3, [sp, #12]
 1729 0020 8DF80D30 		strb	r3, [sp, #13]
 1730 0024 8DF80E30 		strb	r3, [sp, #14]
 1731 0028 8DF80F30 		strb	r3, [sp, #15]
 1732 002c 8DF81030 		strb	r3, [sp, #16]
 1733 0030 4E23     		movs	r3, #78
 1734 0032 8DF81130 		strb	r3, [sp, #17]
 1735 0036 9378     		ldrb	r3, [r2, #2]	@ zero_extendqisi2
 1736 0038 8DF81230 		strb	r3, [sp, #18]
 1737 003c D378     		ldrb	r3, [r2, #3]	@ zero_extendqisi2
 1738 003e 8DF81330 		strb	r3, [sp, #19]
 1739 0042 1379     		ldrb	r3, [r2, #4]	@ zero_extendqisi2
 1740 0044 8DF81430 		strb	r3, [sp, #20]
 252:Core/Src/DallasTemperature.c **** 
 1741              		.loc 1 252 2 is_stmt 1 view .LVU375
ARM GAS  C:\Users\user\AppData\Local\Temp\ccGnldFX.s 			page 44


 1742 0048 0A68     		ldr	r2, [r1]	@ unaligned
 1743              	.LVL144:
 252:Core/Src/DallasTemperature.c **** 
 1744              		.loc 1 252 2 is_stmt 0 view .LVU376
 1745 004a 4B68     		ldr	r3, [r1, #4]	@ unaligned
 1746 004c CDF80920 		str	r2, [sp, #9]	@ unaligned
 1747 0050 CDF80D30 		str	r3, [sp, #13]	@ unaligned
 255:Core/Src/DallasTemperature.c **** 	{
 1748              		.loc 1 255 2 is_stmt 1 view .LVU377
 255:Core/Src/DallasTemperature.c **** 	{
 1749              		.loc 1 255 19 is_stmt 0 view .LVU378
 1750 0054 0B78     		ldrb	r3, [r1]	@ zero_extendqisi2
 255:Core/Src/DallasTemperature.c **** 	{
 1751              		.loc 1 255 5 view .LVU379
 1752 0056 102B     		cmp	r3, #16
 1753 0058 10D0     		beq	.L129
 257:Core/Src/DallasTemperature.c **** 	}
 1754              		.loc 1 257 3 is_stmt 1 view .LVU380
 1755 005a FF23     		movs	r3, #255
 1756 005c 0193     		str	r3, [sp, #4]
 1757 005e 0023     		movs	r3, #0
 1758 0060 0093     		str	r3, [sp]
 1759 0062 0D22     		movs	r2, #13
 1760 0064 02A9     		add	r1, sp, #8
 1761              	.LVL145:
 257:Core/Src/DallasTemperature.c **** 	}
 1762              		.loc 1 257 3 is_stmt 0 view .LVU381
 1763 0066 0068     		ldr	r0, [r0]
 1764              	.LVL146:
 257:Core/Src/DallasTemperature.c **** 	}
 1765              		.loc 1 257 3 view .LVU382
 1766 0068 FFF7FEFF 		bl	OW_Send
 1767              	.LVL147:
 1768              	.L130:
 264:Core/Src/DallasTemperature.c **** 	{
 1769              		.loc 1 264 2 is_stmt 1 view .LVU383
 264:Core/Src/DallasTemperature.c **** 	{
 1770              		.loc 1 264 8 is_stmt 0 view .LVU384
 1771 006c EB7A     		ldrb	r3, [r5, #11]	@ zero_extendqisi2
 264:Core/Src/DallasTemperature.c **** 	{
 1772              		.loc 1 264 5 view .LVU385
 1773 006e 7BB1     		cbz	r3, .L131
 266:Core/Src/DallasTemperature.c **** 	}
 1774              		.loc 1 266 3 is_stmt 1 view .LVU386
 1775 0070 2146     		mov	r1, r4
 1776 0072 2846     		mov	r0, r5
 1777 0074 FFF7FEFF 		bl	DT_SaveScratchPad
 1778              	.LVL148:
 1779              	.L128:
 272:Core/Src/DallasTemperature.c **** 
 1780              		.loc 1 272 1 is_stmt 0 view .LVU387
 1781 0078 07B0     		add	sp, sp, #28
 1782              		.cfi_remember_state
 1783              		.cfi_def_cfa_offset 12
 1784              		@ sp needed
 1785 007a 30BD     		pop	{r4, r5, pc}
 1786              	.LVL149:
ARM GAS  C:\Users\user\AppData\Local\Temp\ccGnldFX.s 			page 45


 1787              	.L129:
 1788              		.cfi_restore_state
 261:Core/Src/DallasTemperature.c **** 	}
 1789              		.loc 1 261 3 is_stmt 1 view .LVU388
 1790 007c FF23     		movs	r3, #255
 1791 007e 0193     		str	r3, [sp, #4]
 1792 0080 0023     		movs	r3, #0
 1793 0082 0093     		str	r3, [sp]
 1794 0084 0C22     		movs	r2, #12
 1795 0086 02A9     		add	r1, sp, #8
 1796              	.LVL150:
 261:Core/Src/DallasTemperature.c **** 	}
 1797              		.loc 1 261 3 is_stmt 0 view .LVU389
 1798 0088 0068     		ldr	r0, [r0]
 1799              	.LVL151:
 261:Core/Src/DallasTemperature.c **** 	}
 1800              		.loc 1 261 3 view .LVU390
 1801 008a FFF7FEFF 		bl	OW_Send
 1802              	.LVL152:
 1803 008e EDE7     		b	.L130
 1804              	.L131:
 270:Core/Src/DallasTemperature.c **** 	}
 1805              		.loc 1 270 3 is_stmt 1 view .LVU391
 1806 0090 2868     		ldr	r0, [r5]
 1807 0092 FFF7FEFF 		bl	OW_Reset
 1808              	.LVL153:
 272:Core/Src/DallasTemperature.c **** 
 1809              		.loc 1 272 1 is_stmt 0 view .LVU392
 1810 0096 EFE7     		b	.L128
 1811              		.cfi_endproc
 1812              	.LFE79:
 1814              		.section	.text.DT_SetResolution,"ax",%progbits
 1815              		.align	1
 1816              		.global	DT_SetResolution
 1817              		.syntax unified
 1818              		.thumb
 1819              		.thumb_func
 1820              		.fpu softvfp
 1822              	DT_SetResolution:
 1823              	.LVL154:
 1824              	.LFB82:
 328:Core/Src/DallasTemperature.c **** 	// ensure same behavior as setResolution(uint8_t newResolution)
 1825              		.loc 1 328 1 is_stmt 1 view -0
 1826              		.cfi_startproc
 1827              		@ args = 0, pretend = 0, frame = 24
 1828              		@ frame_needed = 0, uses_anonymous_args = 0
 328:Core/Src/DallasTemperature.c **** 	// ensure same behavior as setResolution(uint8_t newResolution)
 1829              		.loc 1 328 1 is_stmt 0 view .LVU394
 1830 0000 2DE9F041 		push	{r4, r5, r6, r7, r8, lr}
 1831              		.cfi_def_cfa_offset 24
 1832              		.cfi_offset 4, -24
 1833              		.cfi_offset 5, -20
 1834              		.cfi_offset 6, -16
 1835              		.cfi_offset 7, -12
 1836              		.cfi_offset 8, -8
 1837              		.cfi_offset 14, -4
 1838 0004 86B0     		sub	sp, sp, #24
ARM GAS  C:\Users\user\AppData\Local\Temp\ccGnldFX.s 			page 46


 1839              		.cfi_def_cfa_offset 48
 1840 0006 0546     		mov	r5, r0
 1841 0008 0E46     		mov	r6, r1
 1842 000a 1F46     		mov	r7, r3
 330:Core/Src/DallasTemperature.c **** 
 1843              		.loc 1 330 2 is_stmt 1 view .LVU395
 330:Core/Src/DallasTemperature.c **** 
 1844              		.loc 1 330 16 is_stmt 0 view .LVU396
 1845 000c 082A     		cmp	r2, #8
 1846 000e 04D9     		bls	.L147
 1847 0010 1446     		mov	r4, r2
 330:Core/Src/DallasTemperature.c **** 
 1848              		.loc 1 330 16 discriminator 1 view .LVU397
 1849 0012 0C2A     		cmp	r2, #12
 1850 0014 28BF     		it	cs
 1851 0016 0C24     		movcs	r4, #12
 1852 0018 00E0     		b	.L135
 1853              	.L147:
 330:Core/Src/DallasTemperature.c **** 
 1854              		.loc 1 330 16 view .LVU398
 1855 001a 0924     		movs	r4, #9
 1856              	.L135:
 1857              	.LVL155:
 333:Core/Src/DallasTemperature.c **** 		return true;
 1858              		.loc 1 333 2 is_stmt 1 discriminator 4 view .LVU399
 333:Core/Src/DallasTemperature.c **** 		return true;
 1859              		.loc 1 333 6 is_stmt 0 discriminator 4 view .LVU400
 1860 001c 3146     		mov	r1, r6
 1861              	.LVL156:
 333:Core/Src/DallasTemperature.c **** 		return true;
 1862              		.loc 1 333 6 discriminator 4 view .LVU401
 1863 001e 2846     		mov	r0, r5
 1864              	.LVL157:
 333:Core/Src/DallasTemperature.c **** 		return true;
 1865              		.loc 1 333 6 discriminator 4 view .LVU402
 1866 0020 FFF7FEFF 		bl	DT_GetResolution
 1867              	.LVL158:
 333:Core/Src/DallasTemperature.c **** 		return true;
 1868              		.loc 1 333 5 discriminator 4 view .LVU403
 1869 0024 A042     		cmp	r0, r4
 1870 0026 4AD0     		beq	.L148
 336:Core/Src/DallasTemperature.c **** 
 1871              		.loc 1 336 2 is_stmt 1 view .LVU404
 338:Core/Src/DallasTemperature.c **** 	{
 1872              		.loc 1 338 2 view .LVU405
 338:Core/Src/DallasTemperature.c **** 	{
 1873              		.loc 1 338 6 is_stmt 0 view .LVU406
 1874 0028 03AA     		add	r2, sp, #12
 1875 002a 3146     		mov	r1, r6
 1876 002c 2846     		mov	r0, r5
 1877 002e FFF7FEFF 		bl	DT_IsConnected_ScratchPad
 1878              	.LVL159:
 338:Core/Src/DallasTemperature.c **** 	{
 1879              		.loc 1 338 5 view .LVU407
 1880 0032 8046     		mov	r8, r0
 1881 0034 18B9     		cbnz	r0, .L151
 1882              	.LVL160:
ARM GAS  C:\Users\user\AppData\Local\Temp\ccGnldFX.s 			page 47


 1883              	.L136:
 381:Core/Src/DallasTemperature.c **** 
 1884              		.loc 1 381 1 view .LVU408
 1885 0036 4046     		mov	r0, r8
 1886 0038 06B0     		add	sp, sp, #24
 1887              		.cfi_remember_state
 1888              		.cfi_def_cfa_offset 24
 1889              		@ sp needed
 1890 003a BDE8F081 		pop	{r4, r5, r6, r7, r8, pc}
 1891              	.LVL161:
 1892              	.L151:
 1893              		.cfi_restore_state
 341:Core/Src/DallasTemperature.c **** 		{
 1894              		.loc 1 341 3 is_stmt 1 view .LVU409
 341:Core/Src/DallasTemperature.c **** 		{
 1895              		.loc 1 341 20 is_stmt 0 view .LVU410
 1896 003e 3378     		ldrb	r3, [r6]	@ zero_extendqisi2
 341:Core/Src/DallasTemperature.c **** 		{
 1897              		.loc 1 341 6 view .LVU411
 1898 0040 102B     		cmp	r3, #16
 1899 0042 F8D0     		beq	.L136
 343:Core/Src/DallasTemperature.c **** 			{
 1900              		.loc 1 343 4 is_stmt 1 view .LVU412
 1901 0044 0B2C     		cmp	r4, #11
 1902 0046 1BD0     		beq	.L138
 1903 0048 0C2C     		cmp	r4, #12
 1904 004a 05D0     		beq	.L139
 1905 004c 0A2C     		cmp	r4, #10
 1906 004e 1BD0     		beq	.L152
 356:Core/Src/DallasTemperature.c **** 				break;
 1907              		.loc 1 356 5 view .LVU413
 356:Core/Src/DallasTemperature.c **** 				break;
 1908              		.loc 1 356 31 is_stmt 0 view .LVU414
 1909 0050 1F23     		movs	r3, #31
 1910 0052 8DF81030 		strb	r3, [sp, #16]
 357:Core/Src/DallasTemperature.c **** 			}
 1911              		.loc 1 357 5 is_stmt 1 view .LVU415
 1912 0056 02E0     		b	.L142
 1913              	.L139:
 346:Core/Src/DallasTemperature.c **** 				break;
 1914              		.loc 1 346 5 view .LVU416
 346:Core/Src/DallasTemperature.c **** 				break;
 1915              		.loc 1 346 31 is_stmt 0 view .LVU417
 1916 0058 7F23     		movs	r3, #127
 1917 005a 8DF81030 		strb	r3, [sp, #16]
 347:Core/Src/DallasTemperature.c **** 			case 11:
 1918              		.loc 1 347 5 is_stmt 1 view .LVU418
 1919              	.L142:
 360:Core/Src/DallasTemperature.c **** 
 1920              		.loc 1 360 4 view .LVU419
 1921 005e 03AA     		add	r2, sp, #12
 1922 0060 3146     		mov	r1, r6
 1923 0062 2846     		mov	r0, r5
 1924 0064 FFF7FEFF 		bl	DT_WriteScratchPad
 1925              	.LVL162:
 363:Core/Src/DallasTemperature.c **** 
 1926              		.loc 1 363 4 view .LVU420
ARM GAS  C:\Users\user\AppData\Local\Temp\ccGnldFX.s 			page 48


 363:Core/Src/DallasTemperature.c **** 
 1927              		.loc 1 363 24 is_stmt 0 view .LVU421
 1928 0068 2B7A     		ldrb	r3, [r5, #8]	@ zero_extendqisi2
 1929 006a A342     		cmp	r3, r4
 1930 006c 38BF     		it	cc
 1931 006e 2346     		movcc	r3, r4
 363:Core/Src/DallasTemperature.c **** 
 1932              		.loc 1 363 22 view .LVU422
 1933 0070 2B72     		strb	r3, [r5, #8]
 365:Core/Src/DallasTemperature.c **** 			{
 1934              		.loc 1 365 4 is_stmt 1 view .LVU423
 365:Core/Src/DallasTemperature.c **** 			{
 1935              		.loc 1 365 7 is_stmt 0 view .LVU424
 1936 0072 002F     		cmp	r7, #0
 1937 0074 DFD1     		bne	.L136
 365:Core/Src/DallasTemperature.c **** 			{
 1938              		.loc 1 365 44 discriminator 1 view .LVU425
 1939 0076 A342     		cmp	r3, r4
 1940 0078 DDD9     		bls	.L136
 1941              	.LBB4:
 367:Core/Src/DallasTemperature.c **** 
 1942              		.loc 1 367 5 is_stmt 1 view .LVU426
 367:Core/Src/DallasTemperature.c **** 
 1943              		.loc 1 367 23 is_stmt 0 view .LVU427
 1944 007a 2C72     		strb	r4, [r5, #8]
 369:Core/Src/DallasTemperature.c **** 
 1945              		.loc 1 369 5 is_stmt 1 view .LVU428
 371:Core/Src/DallasTemperature.c **** 				{
 1946              		.loc 1 371 5 view .LVU429
 1947              	.LBB5:
 371:Core/Src/DallasTemperature.c **** 				{
 1948              		.loc 1 371 10 view .LVU430
 1949              	.LVL163:
 371:Core/Src/DallasTemperature.c **** 				{
 1950              		.loc 1 371 14 is_stmt 0 view .LVU431
 1951 007c 0024     		movs	r4, #0
 1952              	.LVL164:
 371:Core/Src/DallasTemperature.c **** 				{
 1953              		.loc 1 371 5 view .LVU432
 1954 007e 0DE0     		b	.L143
 1955              	.LVL165:
 1956              	.L138:
 371:Core/Src/DallasTemperature.c **** 				{
 1957              		.loc 1 371 5 view .LVU433
 1958              	.LBE5:
 1959              	.LBE4:
 349:Core/Src/DallasTemperature.c **** 				break;
 1960              		.loc 1 349 5 is_stmt 1 view .LVU434
 349:Core/Src/DallasTemperature.c **** 				break;
 1961              		.loc 1 349 31 is_stmt 0 view .LVU435
 1962 0080 5F23     		movs	r3, #95
 1963 0082 8DF81030 		strb	r3, [sp, #16]
 350:Core/Src/DallasTemperature.c **** 			case 10:
 1964              		.loc 1 350 5 is_stmt 1 view .LVU436
 1965 0086 EAE7     		b	.L142
 1966              	.L152:
 352:Core/Src/DallasTemperature.c **** 				break;
ARM GAS  C:\Users\user\AppData\Local\Temp\ccGnldFX.s 			page 49


 1967              		.loc 1 352 5 view .LVU437
 352:Core/Src/DallasTemperature.c **** 				break;
 1968              		.loc 1 352 31 is_stmt 0 view .LVU438
 1969 0088 3F23     		movs	r3, #63
 1970 008a 8DF81030 		strb	r3, [sp, #16]
 353:Core/Src/DallasTemperature.c **** 			case 9:
 1971              		.loc 1 353 5 is_stmt 1 view .LVU439
 1972 008e E6E7     		b	.L142
 1973              	.LVL166:
 1974              	.L144:
 1975              	.LBB7:
 1976              	.LBB6:
 374:Core/Src/DallasTemperature.c **** 				}
 1977              		.loc 1 374 26 is_stmt 0 discriminator 2 view .LVU440
 1978 0090 01A9     		add	r1, sp, #4
 1979 0092 2846     		mov	r0, r5
 1980 0094 FFF7FEFF 		bl	DT_GetResolution
 1981              	.LVL167:
 1982              	.L145:
 374:Core/Src/DallasTemperature.c **** 				}
 1983              		.loc 1 374 24 discriminator 4 view .LVU441
 1984 0098 2872     		strb	r0, [r5, #8]
 371:Core/Src/DallasTemperature.c **** 				{
 1985              		.loc 1 371 38 is_stmt 1 discriminator 4 view .LVU442
 371:Core/Src/DallasTemperature.c **** 				{
 1986              		.loc 1 371 39 is_stmt 0 discriminator 4 view .LVU443
 1987 009a 0134     		adds	r4, r4, #1
 1988              	.LVL168:
 1989              	.L143:
 371:Core/Src/DallasTemperature.c **** 				{
 1990              		.loc 1 371 21 is_stmt 1 discriminator 2 view .LVU444
 371:Core/Src/DallasTemperature.c **** 				{
 1991              		.loc 1 371 27 is_stmt 0 discriminator 2 view .LVU445
 1992 009c 2B79     		ldrb	r3, [r5, #4]	@ zero_extendqisi2
 371:Core/Src/DallasTemperature.c **** 				{
 1993              		.loc 1 371 5 discriminator 2 view .LVU446
 1994 009e A342     		cmp	r3, r4
 1995 00a0 C9DD     		ble	.L136
 373:Core/Src/DallasTemperature.c **** 					dt->bitResolution = max(dt->bitResolution, DT_GetResolution(dt, deviceAddr));
 1996              		.loc 1 373 6 is_stmt 1 view .LVU447
 1997 00a2 E2B2     		uxtb	r2, r4
 1998 00a4 01A9     		add	r1, sp, #4
 1999 00a6 2846     		mov	r0, r5
 2000 00a8 FFF7FEFF 		bl	DT_GetAddress
 2001              	.LVL169:
 374:Core/Src/DallasTemperature.c **** 				}
 2002              		.loc 1 374 6 view .LVU448
 374:Core/Src/DallasTemperature.c **** 				}
 2003              		.loc 1 374 26 is_stmt 0 view .LVU449
 2004 00ac 2E7A     		ldrb	r6, [r5, #8]	@ zero_extendqisi2
 2005 00ae 01A9     		add	r1, sp, #4
 2006 00b0 2846     		mov	r0, r5
 2007 00b2 FFF7FEFF 		bl	DT_GetResolution
 2008              	.LVL170:
 374:Core/Src/DallasTemperature.c **** 				}
 2009              		.loc 1 374 24 view .LVU450
 2010 00b6 8642     		cmp	r6, r0
ARM GAS  C:\Users\user\AppData\Local\Temp\ccGnldFX.s 			page 50


 2011 00b8 EAD9     		bls	.L144
 374:Core/Src/DallasTemperature.c **** 				}
 2012              		.loc 1 374 24 discriminator 1 view .LVU451
 2013 00ba 287A     		ldrb	r0, [r5, #8]	@ zero_extendqisi2
 2014 00bc ECE7     		b	.L145
 2015              	.LVL171:
 2016              	.L148:
 374:Core/Src/DallasTemperature.c **** 				}
 2017              		.loc 1 374 24 discriminator 1 view .LVU452
 2018              	.LBE6:
 2019              	.LBE7:
 334:Core/Src/DallasTemperature.c **** 
 2020              		.loc 1 334 10 view .LVU453
 2021 00be 4FF00108 		mov	r8, #1
 2022 00c2 B8E7     		b	.L136
 2023              		.cfi_endproc
 2024              	.LFE82:
 2026              		.section	.text.DT_SetAllResolution,"ax",%progbits
 2027              		.align	1
 2028              		.global	DT_SetAllResolution
 2029              		.syntax unified
 2030              		.thumb
 2031              		.thumb_func
 2032              		.fpu softvfp
 2034              	DT_SetAllResolution:
 2035              	.LVL172:
 2036              	.LFB81:
 314:Core/Src/DallasTemperature.c **** 	dt->bitResolution = constrain(newResolution, 9, 12);
 2037              		.loc 1 314 1 is_stmt 1 view -0
 2038              		.cfi_startproc
 2039              		@ args = 0, pretend = 0, frame = 8
 2040              		@ frame_needed = 0, uses_anonymous_args = 0
 314:Core/Src/DallasTemperature.c **** 	dt->bitResolution = constrain(newResolution, 9, 12);
 2041              		.loc 1 314 1 is_stmt 0 view .LVU455
 2042 0000 30B5     		push	{r4, r5, lr}
 2043              		.cfi_def_cfa_offset 12
 2044              		.cfi_offset 4, -12
 2045              		.cfi_offset 5, -8
 2046              		.cfi_offset 14, -4
 2047 0002 83B0     		sub	sp, sp, #12
 2048              		.cfi_def_cfa_offset 24
 2049 0004 0446     		mov	r4, r0
 315:Core/Src/DallasTemperature.c **** 	CurrentDeviceAddress deviceAddress;
 2050              		.loc 1 315 2 is_stmt 1 view .LVU456
 315:Core/Src/DallasTemperature.c **** 	CurrentDeviceAddress deviceAddress;
 2051              		.loc 1 315 20 is_stmt 0 view .LVU457
 2052 0006 0829     		cmp	r1, #8
 2053 0008 05D9     		bls	.L157
 315:Core/Src/DallasTemperature.c **** 	CurrentDeviceAddress deviceAddress;
 2054              		.loc 1 315 20 discriminator 1 view .LVU458
 2055 000a 0C29     		cmp	r1, #12
 2056 000c 28BF     		it	cs
 2057 000e 0C21     		movcs	r1, #12
 2058              	.LVL173:
 2059              	.L154:
 315:Core/Src/DallasTemperature.c **** 	CurrentDeviceAddress deviceAddress;
 2060              		.loc 1 315 20 discriminator 4 view .LVU459
ARM GAS  C:\Users\user\AppData\Local\Temp\ccGnldFX.s 			page 51


 2061 0010 2172     		strb	r1, [r4, #8]
 316:Core/Src/DallasTemperature.c **** 
 2062              		.loc 1 316 2 is_stmt 1 discriminator 4 view .LVU460
 318:Core/Src/DallasTemperature.c **** 	{
 2063              		.loc 1 318 2 discriminator 4 view .LVU461
 2064              	.LBB8:
 318:Core/Src/DallasTemperature.c **** 	{
 2065              		.loc 1 318 7 discriminator 4 view .LVU462
 2066              	.LVL174:
 318:Core/Src/DallasTemperature.c **** 	{
 2067              		.loc 1 318 11 is_stmt 0 discriminator 4 view .LVU463
 2068 0012 0025     		movs	r5, #0
 318:Core/Src/DallasTemperature.c **** 	{
 2069              		.loc 1 318 2 discriminator 4 view .LVU464
 2070 0014 0DE0     		b	.L155
 2071              	.LVL175:
 2072              	.L157:
 318:Core/Src/DallasTemperature.c **** 	{
 2073              		.loc 1 318 2 discriminator 4 view .LVU465
 2074              	.LBE8:
 315:Core/Src/DallasTemperature.c **** 	CurrentDeviceAddress deviceAddress;
 2075              		.loc 1 315 20 view .LVU466
 2076 0016 0921     		movs	r1, #9
 2077              	.LVL176:
 315:Core/Src/DallasTemperature.c **** 	CurrentDeviceAddress deviceAddress;
 2078              		.loc 1 315 20 view .LVU467
 2079 0018 FAE7     		b	.L154
 2080              	.LVL177:
 2081              	.L156:
 2082              	.LBB9:
 320:Core/Src/DallasTemperature.c **** 		DT_SetResolution(dt, deviceAddress, dt->bitResolution, true);
 2083              		.loc 1 320 3 is_stmt 1 discriminator 3 view .LVU468
 2084 001a EAB2     		uxtb	r2, r5
 2085 001c 6946     		mov	r1, sp
 2086 001e 2046     		mov	r0, r4
 2087 0020 FFF7FEFF 		bl	DT_GetAddress
 2088              	.LVL178:
 321:Core/Src/DallasTemperature.c **** 	}
 2089              		.loc 1 321 3 discriminator 3 view .LVU469
 2090 0024 0123     		movs	r3, #1
 2091 0026 227A     		ldrb	r2, [r4, #8]	@ zero_extendqisi2
 2092 0028 6946     		mov	r1, sp
 2093 002a 2046     		mov	r0, r4
 2094 002c FFF7FEFF 		bl	DT_SetResolution
 2095              	.LVL179:
 318:Core/Src/DallasTemperature.c **** 	{
 2096              		.loc 1 318 35 discriminator 3 view .LVU470
 318:Core/Src/DallasTemperature.c **** 	{
 2097              		.loc 1 318 36 is_stmt 0 discriminator 3 view .LVU471
 2098 0030 0135     		adds	r5, r5, #1
 2099              	.LVL180:
 2100              	.L155:
 318:Core/Src/DallasTemperature.c **** 	{
 2101              		.loc 1 318 18 is_stmt 1 discriminator 1 view .LVU472
 318:Core/Src/DallasTemperature.c **** 	{
 2102              		.loc 1 318 24 is_stmt 0 discriminator 1 view .LVU473
 2103 0032 2379     		ldrb	r3, [r4, #4]	@ zero_extendqisi2
ARM GAS  C:\Users\user\AppData\Local\Temp\ccGnldFX.s 			page 52


 318:Core/Src/DallasTemperature.c **** 	{
 2104              		.loc 1 318 2 discriminator 1 view .LVU474
 2105 0034 AB42     		cmp	r3, r5
 2106 0036 F0DC     		bgt	.L156
 2107              	.LBE9:
 323:Core/Src/DallasTemperature.c **** 
 2108              		.loc 1 323 1 view .LVU475
 2109 0038 03B0     		add	sp, sp, #12
 2110              		.cfi_def_cfa_offset 12
 2111              		@ sp needed
 2112 003a 30BD     		pop	{r4, r5, pc}
 323:Core/Src/DallasTemperature.c **** 
 2113              		.loc 1 323 1 view .LVU476
 2114              		.cfi_endproc
 2115              	.LFE81:
 2117              		.section	.text.DT_SaveScratchPadByIndex,"ax",%progbits
 2118              		.align	1
 2119              		.global	DT_SaveScratchPadByIndex
 2120              		.syntax unified
 2121              		.thumb
 2122              		.thumb_func
 2123              		.fpu softvfp
 2125              	DT_SaveScratchPadByIndex:
 2126              	.LVL181:
 2127              	.LFB94:
 521:Core/Src/DallasTemperature.c **** 	CurrentDeviceAddress deviceAddress;
 2128              		.loc 1 521 1 is_stmt 1 view -0
 2129              		.cfi_startproc
 2130              		@ args = 0, pretend = 0, frame = 8
 2131              		@ frame_needed = 0, uses_anonymous_args = 0
 521:Core/Src/DallasTemperature.c **** 	CurrentDeviceAddress deviceAddress;
 2132              		.loc 1 521 1 is_stmt 0 view .LVU478
 2133 0000 10B5     		push	{r4, lr}
 2134              		.cfi_def_cfa_offset 8
 2135              		.cfi_offset 4, -8
 2136              		.cfi_offset 14, -4
 2137 0002 82B0     		sub	sp, sp, #8
 2138              		.cfi_def_cfa_offset 16
 2139 0004 0446     		mov	r4, r0
 2140 0006 0A46     		mov	r2, r1
 522:Core/Src/DallasTemperature.c ****   if (!DT_GetAddress(dt, deviceAddress, deviceIndex)) return false;
 2141              		.loc 1 522 2 is_stmt 1 view .LVU479
 523:Core/Src/DallasTemperature.c **** 
 2142              		.loc 1 523 3 view .LVU480
 523:Core/Src/DallasTemperature.c **** 
 2143              		.loc 1 523 8 is_stmt 0 view .LVU481
 2144 0008 6946     		mov	r1, sp
 2145              	.LVL182:
 523:Core/Src/DallasTemperature.c **** 
 2146              		.loc 1 523 8 view .LVU482
 2147 000a FFF7FEFF 		bl	DT_GetAddress
 2148              	.LVL183:
 523:Core/Src/DallasTemperature.c **** 
 2149              		.loc 1 523 6 view .LVU483
 2150 000e 08B9     		cbnz	r0, .L162
 2151              	.L160:
 526:Core/Src/DallasTemperature.c **** 
ARM GAS  C:\Users\user\AppData\Local\Temp\ccGnldFX.s 			page 53


 2152              		.loc 1 526 1 view .LVU484
 2153 0010 02B0     		add	sp, sp, #8
 2154              		.cfi_remember_state
 2155              		.cfi_def_cfa_offset 8
 2156              		@ sp needed
 2157 0012 10BD     		pop	{r4, pc}
 2158              	.LVL184:
 2159              	.L162:
 2160              		.cfi_restore_state
 525:Core/Src/DallasTemperature.c **** }
 2161              		.loc 1 525 3 is_stmt 1 view .LVU485
 525:Core/Src/DallasTemperature.c **** }
 2162              		.loc 1 525 10 is_stmt 0 view .LVU486
 2163 0014 6946     		mov	r1, sp
 2164 0016 2046     		mov	r0, r4
 2165 0018 FFF7FEFF 		bl	DT_SaveScratchPad
 2166              	.LVL185:
 2167 001c F8E7     		b	.L160
 2168              		.cfi_endproc
 2169              	.LFE94:
 2171              		.section	.text.DT_RecallScratchPad,"ax",%progbits
 2172              		.align	1
 2173              		.global	DT_RecallScratchPad
 2174              		.syntax unified
 2175              		.thumb
 2176              		.thumb_func
 2177              		.fpu softvfp
 2179              	DT_RecallScratchPad:
 2180              	.LVL186:
 2181              	.LFB97:
 568:Core/Src/DallasTemperature.c **** 
 569:Core/Src/DallasTemperature.c **** // Sends command to one device to recall values from EEPROM to scratchpad by index
 570:Core/Src/DallasTemperature.c **** // Returns true if no errors were encountered, false indicates failure
 571:Core/Src/DallasTemperature.c **** bool DT_RecallScratchPadByIndex(DallasTemperature_HandleTypeDef* dt, uint8_t deviceIndex)
 572:Core/Src/DallasTemperature.c **** {
 573:Core/Src/DallasTemperature.c ****   CurrentDeviceAddress deviceAddress;
 574:Core/Src/DallasTemperature.c ****   if (!DT_GetAddress(dt, deviceAddress, deviceIndex)) return false;
 575:Core/Src/DallasTemperature.c **** 
 576:Core/Src/DallasTemperature.c ****   return DT_RecallScratchPad(dt, deviceAddress);
 577:Core/Src/DallasTemperature.c **** }
 578:Core/Src/DallasTemperature.c **** 
 579:Core/Src/DallasTemperature.c **** // Sends command to one or more devices to recall values from EEPROM to scratchpad
 580:Core/Src/DallasTemperature.c **** // If optional argument deviceAddress is omitted the command is send to all devices
 581:Core/Src/DallasTemperature.c **** // Returns true if no errors were encountered, false indicates failure
 582:Core/Src/DallasTemperature.c **** bool DT_RecallScratchPad(DallasTemperature_HandleTypeDef* dt, const uint8_t* deviceAddress)
 583:Core/Src/DallasTemperature.c **** {
 2182              		.loc 1 583 1 is_stmt 1 view -0
 2183              		.cfi_startproc
 2184              		@ args = 0, pretend = 0, frame = 16
 2185              		@ frame_needed = 0, uses_anonymous_args = 0
 2186              		.loc 1 583 1 is_stmt 0 view .LVU488
 2187 0000 30B5     		push	{r4, r5, lr}
 2188              		.cfi_def_cfa_offset 12
 2189              		.cfi_offset 4, -12
 2190              		.cfi_offset 5, -8
 2191              		.cfi_offset 14, -4
 2192 0002 87B0     		sub	sp, sp, #28
ARM GAS  C:\Users\user\AppData\Local\Temp\ccGnldFX.s 			page 54


 2193              		.cfi_def_cfa_offset 40
 2194 0004 0446     		mov	r4, r0
 2195 0006 0D46     		mov	r5, r1
 584:Core/Src/DallasTemperature.c **** 	uint8_t query[10]={0, 0, 0, 0, 0, 0, 0, 0, 0, 0};
 2196              		.loc 1 584 2 is_stmt 1 view .LVU489
 2197              		.loc 1 584 10 is_stmt 0 view .LVU490
 2198 0008 03AB     		add	r3, sp, #12
 2199 000a 264A     		ldr	r2, .L174
 2200 000c 07CA     		ldm	r2, {r0, r1, r2}
 2201              	.LVL187:
 2202              		.loc 1 584 10 view .LVU491
 2203 000e 03C3     		stmia	r3!, {r0, r1}
 2204 0010 1A80     		strh	r2, [r3]	@ movhi
 585:Core/Src/DallasTemperature.c **** 
 586:Core/Src/DallasTemperature.c **** 	if (OW_Reset(dt->ow) == 0)
 2205              		.loc 1 586 2 is_stmt 1 view .LVU492
 2206              		.loc 1 586 6 is_stmt 0 view .LVU493
 2207 0012 2068     		ldr	r0, [r4]
 2208 0014 FFF7FEFF 		bl	OW_Reset
 2209              	.LVL188:
 2210              		.loc 1 586 5 view .LVU494
 2211 0018 0028     		cmp	r0, #0
 2212 001a 3DD0     		beq	.L169
 587:Core/Src/DallasTemperature.c **** 		return false;
 588:Core/Src/DallasTemperature.c **** 
 589:Core/Src/DallasTemperature.c **** 	if (deviceAddress == NULL)
 2213              		.loc 1 589 2 is_stmt 1 view .LVU495
 2214              		.loc 1 589 5 is_stmt 0 view .LVU496
 2215 001c 2DB3     		cbz	r5, .L172
 590:Core/Src/DallasTemperature.c **** 	{
 591:Core/Src/DallasTemperature.c **** 	  query[0] = 0xCC;
 592:Core/Src/DallasTemperature.c **** 	  query[1] = RECALLSCRATCH;
 593:Core/Src/DallasTemperature.c **** 	  OW_Send(dt->ow, query, 2, NULL, 0, OW_NO_READ);
 594:Core/Src/DallasTemperature.c **** 	}
 595:Core/Src/DallasTemperature.c **** 	else
 596:Core/Src/DallasTemperature.c **** 	{
 597:Core/Src/DallasTemperature.c **** 	  query[0] = 0x55;
 2216              		.loc 1 597 4 is_stmt 1 view .LVU497
 2217              		.loc 1 597 13 is_stmt 0 view .LVU498
 2218 001e 5523     		movs	r3, #85
 2219 0020 8DF80C30 		strb	r3, [sp, #12]
 598:Core/Src/DallasTemperature.c **** 	  memcpy(&query[1], deviceAddress, 8);
 2220              		.loc 1 598 4 is_stmt 1 view .LVU499
 2221 0024 2A68     		ldr	r2, [r5]	@ unaligned
 2222 0026 6B68     		ldr	r3, [r5, #4]	@ unaligned
 2223 0028 CDF80D20 		str	r2, [sp, #13]	@ unaligned
 2224 002c CDF81130 		str	r3, [sp, #17]	@ unaligned
 599:Core/Src/DallasTemperature.c **** 	  query[9] = RECALLSCRATCH;
 2225              		.loc 1 599 4 view .LVU500
 2226              		.loc 1 599 13 is_stmt 0 view .LVU501
 2227 0030 B823     		movs	r3, #184
 2228 0032 8DF81530 		strb	r3, [sp, #21]
 600:Core/Src/DallasTemperature.c **** 	  OW_Send(dt->ow, query, 10, NULL, 0, OW_NO_READ);
 2229              		.loc 1 600 4 is_stmt 1 view .LVU502
 2230 0036 FF23     		movs	r3, #255
 2231 0038 0193     		str	r3, [sp, #4]
 2232 003a 0023     		movs	r3, #0
ARM GAS  C:\Users\user\AppData\Local\Temp\ccGnldFX.s 			page 55


 2233 003c 0093     		str	r3, [sp]
 2234 003e 0A22     		movs	r2, #10
 2235 0040 03A9     		add	r1, sp, #12
 2236 0042 2068     		ldr	r0, [r4]
 2237 0044 FFF7FEFF 		bl	OW_Send
 2238              	.LVL189:
 2239              	.L166:
 601:Core/Src/DallasTemperature.c **** 	}
 602:Core/Src/DallasTemperature.c **** 
 603:Core/Src/DallasTemperature.c **** 	// Specification: Strong pullup only needed when writing to EEPROM (and temp conversion)
 604:Core/Src/DallasTemperature.c **** 	uint32_t start = HAL_GetTick();
 2240              		.loc 1 604 2 view .LVU503
 2241              		.loc 1 604 19 is_stmt 0 view .LVU504
 2242 0048 FFF7FEFF 		bl	HAL_GetTick
 2243              	.LVL190:
 2244 004c 0546     		mov	r5, r0
 2245              	.LVL191:
 605:Core/Src/DallasTemperature.c **** 
 606:Core/Src/DallasTemperature.c **** 	while (dt->ow->huart->gState == HAL_UART_STATE_TIMEOUT)
 2246              		.loc 1 606 2 is_stmt 1 view .LVU505
 2247              	.L167:
 2248              		.loc 1 606 8 view .LVU506
 2249              		.loc 1 606 11 is_stmt 0 view .LVU507
 2250 004e 2068     		ldr	r0, [r4]
 2251              		.loc 1 606 15 view .LVU508
 2252 0050 0368     		ldr	r3, [r0]
 2253              		.loc 1 606 22 view .LVU509
 2254 0052 93F83D30 		ldrb	r3, [r3, #61]	@ zero_extendqisi2
 2255 0056 DBB2     		uxtb	r3, r3
 2256              		.loc 1 606 8 view .LVU510
 2257 0058 A02B     		cmp	r3, #160
 2258 005a 16D1     		bne	.L173
 607:Core/Src/DallasTemperature.c **** 	{
 608:Core/Src/DallasTemperature.c **** 		// Datasheet doesn't specify typical/max duration, testing reveals typically within 1ms
 609:Core/Src/DallasTemperature.c **** 		if (HAL_GetTick() - start > 20) return false;
 2259              		.loc 1 609 3 is_stmt 1 view .LVU511
 2260              		.loc 1 609 7 is_stmt 0 view .LVU512
 2261 005c FFF7FEFF 		bl	HAL_GetTick
 2262              	.LVL192:
 2263              		.loc 1 609 21 view .LVU513
 2264 0060 431B     		subs	r3, r0, r5
 2265              		.loc 1 609 6 view .LVU514
 2266 0062 142B     		cmp	r3, #20
 2267 0064 1BD8     		bhi	.L170
 610:Core/Src/DallasTemperature.c **** 		__NOP();
 2268              		.loc 1 610 3 is_stmt 1 view .LVU515
 2269              		.syntax unified
 2270              	@ 610 "Core/Src/DallasTemperature.c" 1
 2271 0066 00BF     		nop
 2272              	@ 0 "" 2
 2273              		.thumb
 2274              		.syntax unified
 2275 0068 F1E7     		b	.L167
 2276              	.LVL193:
 2277              	.L172:
 591:Core/Src/DallasTemperature.c **** 	  query[1] = RECALLSCRATCH;
 2278              		.loc 1 591 4 view .LVU516
ARM GAS  C:\Users\user\AppData\Local\Temp\ccGnldFX.s 			page 56


 591:Core/Src/DallasTemperature.c **** 	  query[1] = RECALLSCRATCH;
 2279              		.loc 1 591 13 is_stmt 0 view .LVU517
 2280 006a CC23     		movs	r3, #204
 2281 006c 8DF80C30 		strb	r3, [sp, #12]
 592:Core/Src/DallasTemperature.c **** 	  OW_Send(dt->ow, query, 2, NULL, 0, OW_NO_READ);
 2282              		.loc 1 592 4 is_stmt 1 view .LVU518
 592:Core/Src/DallasTemperature.c **** 	  OW_Send(dt->ow, query, 2, NULL, 0, OW_NO_READ);
 2283              		.loc 1 592 13 is_stmt 0 view .LVU519
 2284 0070 B823     		movs	r3, #184
 2285 0072 8DF80D30 		strb	r3, [sp, #13]
 593:Core/Src/DallasTemperature.c **** 	}
 2286              		.loc 1 593 4 is_stmt 1 view .LVU520
 2287 0076 FF23     		movs	r3, #255
 2288 0078 0193     		str	r3, [sp, #4]
 2289 007a 0023     		movs	r3, #0
 2290 007c 0093     		str	r3, [sp]
 2291 007e 0222     		movs	r2, #2
 2292 0080 03A9     		add	r1, sp, #12
 2293 0082 2068     		ldr	r0, [r4]
 2294 0084 FFF7FEFF 		bl	OW_Send
 2295              	.LVL194:
 2296 0088 DEE7     		b	.L166
 2297              	.LVL195:
 2298              	.L173:
 611:Core/Src/DallasTemperature.c **** 	}
 612:Core/Src/DallasTemperature.c **** 
 613:Core/Src/DallasTemperature.c **** 	return OW_Reset(dt->ow) == 1;
 2299              		.loc 1 613 2 view .LVU521
 2300              		.loc 1 613 9 is_stmt 0 view .LVU522
 2301 008a FFF7FEFF 		bl	OW_Reset
 2302              	.LVL196:
 2303              		.loc 1 613 26 view .LVU523
 2304 008e 0128     		cmp	r0, #1
 2305 0090 14BF     		ite	ne
 2306 0092 0020     		movne	r0, #0
 2307 0094 0120     		moveq	r0, #1
 2308 0096 00E0     		b	.L164
 2309              	.LVL197:
 2310              	.L169:
 587:Core/Src/DallasTemperature.c **** 
 2311              		.loc 1 587 10 view .LVU524
 2312 0098 0020     		movs	r0, #0
 2313              	.LVL198:
 2314              	.L164:
 614:Core/Src/DallasTemperature.c **** }
 2315              		.loc 1 614 1 view .LVU525
 2316 009a 07B0     		add	sp, sp, #28
 2317              		.cfi_remember_state
 2318              		.cfi_def_cfa_offset 12
 2319              		@ sp needed
 2320 009c 30BD     		pop	{r4, r5, pc}
 2321              	.LVL199:
 2322              	.L170:
 2323              		.cfi_restore_state
 609:Core/Src/DallasTemperature.c **** 		__NOP();
 2324              		.loc 1 609 42 view .LVU526
 2325 009e 0020     		movs	r0, #0
ARM GAS  C:\Users\user\AppData\Local\Temp\ccGnldFX.s 			page 57


 2326 00a0 FBE7     		b	.L164
 2327              	.L175:
 2328 00a2 00BF     		.align	2
 2329              	.L174:
 2330 00a4 2C000000 		.word	.LANCHOR0+44
 2331              		.cfi_endproc
 2332              	.LFE97:
 2334              		.section	.text.DT_RecallScratchPadByIndex,"ax",%progbits
 2335              		.align	1
 2336              		.global	DT_RecallScratchPadByIndex
 2337              		.syntax unified
 2338              		.thumb
 2339              		.thumb_func
 2340              		.fpu softvfp
 2342              	DT_RecallScratchPadByIndex:
 2343              	.LVL200:
 2344              	.LFB96:
 572:Core/Src/DallasTemperature.c ****   CurrentDeviceAddress deviceAddress;
 2345              		.loc 1 572 1 is_stmt 1 view -0
 2346              		.cfi_startproc
 2347              		@ args = 0, pretend = 0, frame = 8
 2348              		@ frame_needed = 0, uses_anonymous_args = 0
 572:Core/Src/DallasTemperature.c ****   CurrentDeviceAddress deviceAddress;
 2349              		.loc 1 572 1 is_stmt 0 view .LVU528
 2350 0000 10B5     		push	{r4, lr}
 2351              		.cfi_def_cfa_offset 8
 2352              		.cfi_offset 4, -8
 2353              		.cfi_offset 14, -4
 2354 0002 82B0     		sub	sp, sp, #8
 2355              		.cfi_def_cfa_offset 16
 2356 0004 0446     		mov	r4, r0
 2357 0006 0A46     		mov	r2, r1
 573:Core/Src/DallasTemperature.c ****   if (!DT_GetAddress(dt, deviceAddress, deviceIndex)) return false;
 2358              		.loc 1 573 3 is_stmt 1 view .LVU529
 574:Core/Src/DallasTemperature.c **** 
 2359              		.loc 1 574 3 view .LVU530
 574:Core/Src/DallasTemperature.c **** 
 2360              		.loc 1 574 8 is_stmt 0 view .LVU531
 2361 0008 6946     		mov	r1, sp
 2362              	.LVL201:
 574:Core/Src/DallasTemperature.c **** 
 2363              		.loc 1 574 8 view .LVU532
 2364 000a FFF7FEFF 		bl	DT_GetAddress
 2365              	.LVL202:
 574:Core/Src/DallasTemperature.c **** 
 2366              		.loc 1 574 6 view .LVU533
 2367 000e 08B9     		cbnz	r0, .L179
 2368              	.L177:
 577:Core/Src/DallasTemperature.c **** 
 2369              		.loc 1 577 1 view .LVU534
 2370 0010 02B0     		add	sp, sp, #8
 2371              		.cfi_remember_state
 2372              		.cfi_def_cfa_offset 8
 2373              		@ sp needed
 2374 0012 10BD     		pop	{r4, pc}
 2375              	.LVL203:
 2376              	.L179:
ARM GAS  C:\Users\user\AppData\Local\Temp\ccGnldFX.s 			page 58


 2377              		.cfi_restore_state
 576:Core/Src/DallasTemperature.c **** }
 2378              		.loc 1 576 3 is_stmt 1 view .LVU535
 576:Core/Src/DallasTemperature.c **** }
 2379              		.loc 1 576 10 is_stmt 0 view .LVU536
 2380 0014 6946     		mov	r1, sp
 2381 0016 2046     		mov	r0, r4
 2382 0018 FFF7FEFF 		bl	DT_RecallScratchPad
 2383              	.LVL204:
 2384 001c F8E7     		b	.L177
 2385              		.cfi_endproc
 2386              	.LFE96:
 2388              		.section	.text.DT_SetAutoSaveScratchPad,"ax",%progbits
 2389              		.align	1
 2390              		.global	DT_SetAutoSaveScratchPad
 2391              		.syntax unified
 2392              		.thumb
 2393              		.thumb_func
 2394              		.fpu softvfp
 2396              	DT_SetAutoSaveScratchPad:
 2397              	.LVL205:
 2398              	.LFB98:
 615:Core/Src/DallasTemperature.c **** 
 616:Core/Src/DallasTemperature.c **** // Sets the autoSaveScratchPad flag
 617:Core/Src/DallasTemperature.c **** void DT_SetAutoSaveScratchPad(DallasTemperature_HandleTypeDef* dt, bool flag)
 618:Core/Src/DallasTemperature.c **** {
 2399              		.loc 1 618 1 is_stmt 1 view -0
 2400              		.cfi_startproc
 2401              		@ args = 0, pretend = 0, frame = 0
 2402              		@ frame_needed = 0, uses_anonymous_args = 0
 2403              		@ link register save eliminated.
 619:Core/Src/DallasTemperature.c ****   dt->autoSaveScratchPad = flag;
 2404              		.loc 1 619 3 view .LVU538
 2405              		.loc 1 619 26 is_stmt 0 view .LVU539
 2406 0000 C172     		strb	r1, [r0, #11]
 620:Core/Src/DallasTemperature.c **** }
 2407              		.loc 1 620 1 view .LVU540
 2408 0002 7047     		bx	lr
 2409              		.cfi_endproc
 2410              	.LFE98:
 2412              		.section	.text.DT_GetAutoSaveScratchPad,"ax",%progbits
 2413              		.align	1
 2414              		.global	DT_GetAutoSaveScratchPad
 2415              		.syntax unified
 2416              		.thumb
 2417              		.thumb_func
 2418              		.fpu softvfp
 2420              	DT_GetAutoSaveScratchPad:
 2421              	.LVL206:
 2422              	.LFB99:
 621:Core/Src/DallasTemperature.c **** 
 622:Core/Src/DallasTemperature.c **** // Gets the autoSaveScratchPad flag
 623:Core/Src/DallasTemperature.c **** bool DT_GetAutoSaveScratchPad(DallasTemperature_HandleTypeDef* dt)
 624:Core/Src/DallasTemperature.c **** {
 2423              		.loc 1 624 1 is_stmt 1 view -0
 2424              		.cfi_startproc
 2425              		@ args = 0, pretend = 0, frame = 0
ARM GAS  C:\Users\user\AppData\Local\Temp\ccGnldFX.s 			page 59


 2426              		@ frame_needed = 0, uses_anonymous_args = 0
 2427              		@ link register save eliminated.
 625:Core/Src/DallasTemperature.c ****   return dt->autoSaveScratchPad;
 2428              		.loc 1 625 3 view .LVU542
 626:Core/Src/DallasTemperature.c **** }
 2429              		.loc 1 626 1 is_stmt 0 view .LVU543
 2430 0000 C07A     		ldrb	r0, [r0, #11]	@ zero_extendqisi2
 2431              	.LVL207:
 2432              		.loc 1 626 1 view .LVU544
 2433 0002 7047     		bx	lr
 2434              		.cfi_endproc
 2435              	.LFE99:
 2437              		.section	.text.DT_CalculateTemperature,"ax",%progbits
 2438              		.align	1
 2439              		.global	DT_CalculateTemperature
 2440              		.syntax unified
 2441              		.thumb
 2442              		.thumb_func
 2443              		.fpu softvfp
 2445              	DT_CalculateTemperature:
 2446              	.LVL208:
 2447              	.LFB102:
 627:Core/Src/DallasTemperature.c **** 
 628:Core/Src/DallasTemperature.c **** // Fetch temperature for device index
 629:Core/Src/DallasTemperature.c **** float DT_GetTempCByIndex(DallasTemperature_HandleTypeDef* dt, uint8_t deviceIndex)
 630:Core/Src/DallasTemperature.c **** {
 631:Core/Src/DallasTemperature.c **** 	CurrentDeviceAddress deviceAddress;
 632:Core/Src/DallasTemperature.c **** 
 633:Core/Src/DallasTemperature.c **** 	if (!DT_GetAddress(dt, deviceAddress, deviceIndex))
 634:Core/Src/DallasTemperature.c **** 	{
 635:Core/Src/DallasTemperature.c **** 		return DEVICE_DISCONNECTED_C;
 636:Core/Src/DallasTemperature.c **** 	}
 637:Core/Src/DallasTemperature.c **** 
 638:Core/Src/DallasTemperature.c **** 	return DT_GetTempC(dt, (uint8_t*) deviceAddress);
 639:Core/Src/DallasTemperature.c **** }
 640:Core/Src/DallasTemperature.c **** 
 641:Core/Src/DallasTemperature.c **** // Fetch temperature for device index
 642:Core/Src/DallasTemperature.c **** float DT_GetTempFByIndex(DallasTemperature_HandleTypeDef* dt, uint8_t deviceIndex)
 643:Core/Src/DallasTemperature.c **** {
 644:Core/Src/DallasTemperature.c **** 	CurrentDeviceAddress deviceAddress;
 645:Core/Src/DallasTemperature.c **** 
 646:Core/Src/DallasTemperature.c **** 	if (!DT_GetAddress(dt, deviceAddress, deviceIndex))
 647:Core/Src/DallasTemperature.c **** 	{
 648:Core/Src/DallasTemperature.c **** 		return DEVICE_DISCONNECTED_F;
 649:Core/Src/DallasTemperature.c **** 	}
 650:Core/Src/DallasTemperature.c **** 
 651:Core/Src/DallasTemperature.c **** 	return DT_GetTempF(dt, (uint8_t*) deviceAddress);
 652:Core/Src/DallasTemperature.c **** }
 653:Core/Src/DallasTemperature.c **** 
 654:Core/Src/DallasTemperature.c **** // reads scratchpad and returns fixed-point temperature, scaling factor 2^-7
 655:Core/Src/DallasTemperature.c **** int16_t DT_CalculateTemperature(const uint8_t* deviceAddress, uint8_t* scratchPad)
 656:Core/Src/DallasTemperature.c **** {
 2448              		.loc 1 656 1 is_stmt 1 view -0
 2449              		.cfi_startproc
 2450              		@ args = 0, pretend = 0, frame = 0
 2451              		@ frame_needed = 0, uses_anonymous_args = 0
 2452              		@ link register save eliminated.
ARM GAS  C:\Users\user\AppData\Local\Temp\ccGnldFX.s 			page 60


 657:Core/Src/DallasTemperature.c **** 	int16_t fpTemperature = (((int16_t) scratchPad[TEMP_MSB]) << 11) | (((int16_t) scratchPad[TEMP_LSB
 2453              		.loc 1 657 2 view .LVU546
 2454              		.loc 1 657 48 is_stmt 0 view .LVU547
 2455 0000 4B78     		ldrb	r3, [r1, #1]	@ zero_extendqisi2
 2456              		.loc 1 657 60 view .LVU548
 2457 0002 DB02     		lsls	r3, r3, #11
 2458              		.loc 1 657 67 view .LVU549
 2459 0004 1BB2     		sxth	r3, r3
 2460              		.loc 1 657 91 view .LVU550
 2461 0006 0A78     		ldrb	r2, [r1]	@ zero_extendqisi2
 2462              		.loc 1 657 10 view .LVU551
 2463 0008 43EAC203 		orr	r3, r3, r2, lsl #3
 2464              	.LVL209:
 658:Core/Src/DallasTemperature.c **** 
 659:Core/Src/DallasTemperature.c **** 	/*
 660:Core/Src/DallasTemperature.c **** 	 DS1820 and DS18S20 have a 9-bit temperature register.
 661:Core/Src/DallasTemperature.c **** 	 Resolutions greater than 9-bit can be calculated using the data from
 662:Core/Src/DallasTemperature.c **** 	 the temperature, and COUNT REMAIN and COUNT PER C registers in the
 663:Core/Src/DallasTemperature.c **** 	 scratchpad.  The resolution of the calculation depends on the model.
 664:Core/Src/DallasTemperature.c **** 	 While the COUNT PER C register is hard-wired to 16 (10h) in a
 665:Core/Src/DallasTemperature.c **** 	 DS18S20, it changes with temperature in DS1820.
 666:Core/Src/DallasTemperature.c **** 	 After reading the scratchpad, the TEMP_READ value is obtained by
 667:Core/Src/DallasTemperature.c **** 	 truncating the 0.5C bit (bit 0) from the temperature data. The
 668:Core/Src/DallasTemperature.c **** 	 extended resolution temperature can then be calculated using the
 669:Core/Src/DallasTemperature.c **** 	 following equation:
 670:Core/Src/DallasTemperature.c **** 	 COUNT_PER_C - COUNT_REMAIN
 671:Core/Src/DallasTemperature.c **** 	 TEMPERATURE = TEMP_READ - 0.25 + --------------------------
 672:Core/Src/DallasTemperature.c **** 	 COUNT_PER_C
 673:Core/Src/DallasTemperature.c **** 	 Hagai Shatz simplified this to integer arithmetic for a 12 bits
 674:Core/Src/DallasTemperature.c **** 	 value for a DS18S20, and James Cameron added legacy DS1820 support.
 675:Core/Src/DallasTemperature.c **** 	 See - http://myarduinotoy.blogspot.co.uk/2013/02/12bit-result-from-ds18s20.html
 676:Core/Src/DallasTemperature.c **** 	 */
 677:Core/Src/DallasTemperature.c **** 
 678:Core/Src/DallasTemperature.c **** 	if (deviceAddress[0] == DS18S20MODEL)
 2465              		.loc 1 678 2 is_stmt 1 view .LVU552
 2466              		.loc 1 678 19 is_stmt 0 view .LVU553
 2467 000c 0278     		ldrb	r2, [r0]	@ zero_extendqisi2
 2468              		.loc 1 678 5 view .LVU554
 2469 000e 102A     		cmp	r2, #16
 2470 0010 01D0     		beq	.L184
 2471              	.LVL210:
 2472              	.L183:
 679:Core/Src/DallasTemperature.c **** 	{
 680:Core/Src/DallasTemperature.c **** 		fpTemperature = ((fpTemperature & 0xfff0) << 3) - 16 + (((scratchPad[COUNT_PER_C] - scratchPad[CO
 681:Core/Src/DallasTemperature.c **** 	}
 682:Core/Src/DallasTemperature.c **** 
 683:Core/Src/DallasTemperature.c **** 	return fpTemperature;
 2473              		.loc 1 683 2 is_stmt 1 view .LVU555
 684:Core/Src/DallasTemperature.c **** }
 2474              		.loc 1 684 1 is_stmt 0 view .LVU556
 2475 0012 1846     		mov	r0, r3
 2476 0014 7047     		bx	lr
 2477              	.LVL211:
 2478              	.L184:
 680:Core/Src/DallasTemperature.c **** 	}
 2479              		.loc 1 680 3 is_stmt 1 view .LVU557
 680:Core/Src/DallasTemperature.c **** 	}
ARM GAS  C:\Users\user\AppData\Local\Temp\ccGnldFX.s 			page 61


 2480              		.loc 1 680 45 is_stmt 0 view .LVU558
 2481 0016 DB00     		lsls	r3, r3, #3
 2482              	.LVL212:
 680:Core/Src/DallasTemperature.c **** 	}
 2483              		.loc 1 680 45 view .LVU559
 2484 0018 23F07F03 		bic	r3, r3, #127
 2485 001c 9BB2     		uxth	r3, r3
 680:Core/Src/DallasTemperature.c **** 	}
 2486              		.loc 1 680 71 view .LVU560
 2487 001e CA79     		ldrb	r2, [r1, #7]	@ zero_extendqisi2
 680:Core/Src/DallasTemperature.c **** 	}
 2488              		.loc 1 680 97 view .LVU561
 2489 0020 8879     		ldrb	r0, [r1, #6]	@ zero_extendqisi2
 2490              	.LVL213:
 680:Core/Src/DallasTemperature.c **** 	}
 2491              		.loc 1 680 85 view .LVU562
 2492 0022 101A     		subs	r0, r2, r0
 680:Core/Src/DallasTemperature.c **** 	}
 2493              		.loc 1 680 113 view .LVU563
 2494 0024 C001     		lsls	r0, r0, #7
 680:Core/Src/DallasTemperature.c **** 	}
 2495              		.loc 1 680 119 view .LVU564
 2496 0026 90FBF2F0 		sdiv	r0, r0, r2
 680:Core/Src/DallasTemperature.c **** 	}
 2497              		.loc 1 680 56 view .LVU565
 2498 002a 0344     		add	r3, r3, r0
 2499 002c 103B     		subs	r3, r3, #16
 680:Core/Src/DallasTemperature.c **** 	}
 2500              		.loc 1 680 17 view .LVU566
 2501 002e 1BB2     		sxth	r3, r3
 2502              	.LVL214:
 680:Core/Src/DallasTemperature.c **** 	}
 2503              		.loc 1 680 17 view .LVU567
 2504 0030 EFE7     		b	.L183
 2505              		.cfi_endproc
 2506              	.LFE102:
 2508              		.section	.text.DT_GetTemp,"ax",%progbits
 2509              		.align	1
 2510              		.global	DT_GetTemp
 2511              		.syntax unified
 2512              		.thumb
 2513              		.thumb_func
 2514              		.fpu softvfp
 2516              	DT_GetTemp:
 2517              	.LVL215:
 2518              	.LFB103:
 685:Core/Src/DallasTemperature.c **** 
 686:Core/Src/DallasTemperature.c **** // returns temperature in 1/128 degrees C or DEVICE_DISCONNECTED_RAW if the
 687:Core/Src/DallasTemperature.c **** // device's scratch pad cannot be read successfully.
 688:Core/Src/DallasTemperature.c **** // the numeric value of DEVICE_DISCONNECTED_RAW is defined in
 689:Core/Src/DallasTemperature.c **** // DallasTemperature.h. It is a large negative number outside the
 690:Core/Src/DallasTemperature.c **** // operating range of the device
 691:Core/Src/DallasTemperature.c **** int16_t DT_GetTemp(DallasTemperature_HandleTypeDef* dt, const uint8_t* deviceAddress)
 692:Core/Src/DallasTemperature.c **** {
 2519              		.loc 1 692 1 is_stmt 1 view -0
 2520              		.cfi_startproc
 2521              		@ args = 0, pretend = 0, frame = 16
ARM GAS  C:\Users\user\AppData\Local\Temp\ccGnldFX.s 			page 62


 2522              		@ frame_needed = 0, uses_anonymous_args = 0
 2523              		.loc 1 692 1 is_stmt 0 view .LVU569
 2524 0000 10B5     		push	{r4, lr}
 2525              		.cfi_def_cfa_offset 8
 2526              		.cfi_offset 4, -8
 2527              		.cfi_offset 14, -4
 2528 0002 84B0     		sub	sp, sp, #16
 2529              		.cfi_def_cfa_offset 24
 2530 0004 0C46     		mov	r4, r1
 693:Core/Src/DallasTemperature.c **** 	ScratchPad scratchPad;
 2531              		.loc 1 693 2 is_stmt 1 view .LVU570
 694:Core/Src/DallasTemperature.c **** 	if (DT_IsConnected_ScratchPad(dt, deviceAddress, scratchPad))
 2532              		.loc 1 694 2 view .LVU571
 2533              		.loc 1 694 6 is_stmt 0 view .LVU572
 2534 0006 01AA     		add	r2, sp, #4
 2535 0008 FFF7FEFF 		bl	DT_IsConnected_ScratchPad
 2536              	.LVL216:
 2537              		.loc 1 694 5 view .LVU573
 2538 000c 28B1     		cbz	r0, .L187
 695:Core/Src/DallasTemperature.c **** 		return DT_CalculateTemperature(deviceAddress, scratchPad);
 2539              		.loc 1 695 3 is_stmt 1 view .LVU574
 2540              		.loc 1 695 10 is_stmt 0 view .LVU575
 2541 000e 01A9     		add	r1, sp, #4
 2542 0010 2046     		mov	r0, r4
 2543 0012 FFF7FEFF 		bl	DT_CalculateTemperature
 2544              	.LVL217:
 2545              	.L186:
 696:Core/Src/DallasTemperature.c **** 	return DEVICE_DISCONNECTED_RAW;
 697:Core/Src/DallasTemperature.c **** }
 2546              		.loc 1 697 1 view .LVU576
 2547 0016 04B0     		add	sp, sp, #16
 2548              		.cfi_remember_state
 2549              		.cfi_def_cfa_offset 8
 2550              		@ sp needed
 2551 0018 10BD     		pop	{r4, pc}
 2552              	.LVL218:
 2553              	.L187:
 2554              		.cfi_restore_state
 696:Core/Src/DallasTemperature.c **** 	return DEVICE_DISCONNECTED_RAW;
 2555              		.loc 1 696 9 view .LVU577
 2556 001a 0148     		ldr	r0, .L189
 2557 001c FBE7     		b	.L186
 2558              	.L190:
 2559 001e 00BF     		.align	2
 2560              	.L189:
 2561 0020 80E4FFFF 		.word	-7040
 2562              		.cfi_endproc
 2563              	.LFE103:
 2565              		.section	.text.DT_IsParasitePowerMode,"ax",%progbits
 2566              		.align	1
 2567              		.global	DT_IsParasitePowerMode
 2568              		.syntax unified
 2569              		.thumb
 2570              		.thumb_func
 2571              		.fpu softvfp
 2573              	DT_IsParasitePowerMode:
 2574              	.LVL219:
ARM GAS  C:\Users\user\AppData\Local\Temp\ccGnldFX.s 			page 63


 2575              	.LFB106:
 698:Core/Src/DallasTemperature.c **** 
 699:Core/Src/DallasTemperature.c **** // returns temperature in degrees C or DEVICE_DISCONNECTED_C if the
 700:Core/Src/DallasTemperature.c **** // device's scratch pad cannot be read successfully.
 701:Core/Src/DallasTemperature.c **** // the numeric value of DEVICE_DISCONNECTED_C is defined in
 702:Core/Src/DallasTemperature.c **** // DallasTemperature.h. It is a large negative number outside the
 703:Core/Src/DallasTemperature.c **** // operating range of the device
 704:Core/Src/DallasTemperature.c **** float DT_GetTempC(DallasTemperature_HandleTypeDef* dt, const uint8_t* deviceAddress)
 705:Core/Src/DallasTemperature.c **** {
 706:Core/Src/DallasTemperature.c **** 	return DT_RawToCelsius(DT_GetTemp(dt, deviceAddress));
 707:Core/Src/DallasTemperature.c **** }
 708:Core/Src/DallasTemperature.c **** 
 709:Core/Src/DallasTemperature.c **** // returns temperature in degrees F or DEVICE_DISCONNECTED_F if the
 710:Core/Src/DallasTemperature.c **** // device's scratch pad cannot be read successfully.
 711:Core/Src/DallasTemperature.c **** // the numeric value of DEVICE_DISCONNECTED_F is defined in
 712:Core/Src/DallasTemperature.c **** // DallasTemperature.h. It is a large negative number outside the
 713:Core/Src/DallasTemperature.c **** // operating range of the device
 714:Core/Src/DallasTemperature.c **** float DT_GetTempF(DallasTemperature_HandleTypeDef* dt, const uint8_t* deviceAddress)
 715:Core/Src/DallasTemperature.c **** {
 716:Core/Src/DallasTemperature.c **** 	return DT_RawToFahrenheit(DT_GetTemp(dt, deviceAddress));
 717:Core/Src/DallasTemperature.c **** }
 718:Core/Src/DallasTemperature.c **** 
 719:Core/Src/DallasTemperature.c **** // returns true if the bus requires parasite power
 720:Core/Src/DallasTemperature.c **** bool DT_IsParasitePowerMode(DallasTemperature_HandleTypeDef* dt)
 721:Core/Src/DallasTemperature.c **** {
 2576              		.loc 1 721 1 is_stmt 1 view -0
 2577              		.cfi_startproc
 2578              		@ args = 0, pretend = 0, frame = 0
 2579              		@ frame_needed = 0, uses_anonymous_args = 0
 2580              		@ link register save eliminated.
 722:Core/Src/DallasTemperature.c **** 	return dt->parasite;
 2581              		.loc 1 722 2 view .LVU579
 723:Core/Src/DallasTemperature.c **** }
 2582              		.loc 1 723 1 is_stmt 0 view .LVU580
 2583 0000 8079     		ldrb	r0, [r0, #6]	@ zero_extendqisi2
 2584              	.LVL220:
 2585              		.loc 1 723 1 view .LVU581
 2586 0002 7047     		bx	lr
 2587              		.cfi_endproc
 2588              	.LFE106:
 2590              		.section	.text.DT_GetUserData,"ax",%progbits
 2591              		.align	1
 2592              		.global	DT_GetUserData
 2593              		.syntax unified
 2594              		.thumb
 2595              		.thumb_func
 2596              		.fpu softvfp
 2598              	DT_GetUserData:
 2599              	.LVL221:
 2600              	.LFB108:
 724:Core/Src/DallasTemperature.c **** 
 725:Core/Src/DallasTemperature.c **** // IF alarm is not used one can store a 16 bit int of userdata in the alarm
 726:Core/Src/DallasTemperature.c **** // registers. E.g. an ID of the sensor.
 727:Core/Src/DallasTemperature.c **** // See github issue #29
 728:Core/Src/DallasTemperature.c **** 
 729:Core/Src/DallasTemperature.c **** // note if device is not connected it will fail writing the data.
 730:Core/Src/DallasTemperature.c **** void DT_SetUserData(DallasTemperature_HandleTypeDef* dt, const uint8_t* deviceAddress, int16_t data
ARM GAS  C:\Users\user\AppData\Local\Temp\ccGnldFX.s 			page 64


 731:Core/Src/DallasTemperature.c **** {
 732:Core/Src/DallasTemperature.c **** 	// return when stored value == new value
 733:Core/Src/DallasTemperature.c **** 	if (DT_GetUserData(dt, deviceAddress) == data)
 734:Core/Src/DallasTemperature.c **** 		return;
 735:Core/Src/DallasTemperature.c **** 
 736:Core/Src/DallasTemperature.c **** 	ScratchPad scratchPad;
 737:Core/Src/DallasTemperature.c **** 	if (DT_IsConnected_ScratchPad(dt, deviceAddress, scratchPad))
 738:Core/Src/DallasTemperature.c **** 	{
 739:Core/Src/DallasTemperature.c **** 		scratchPad[HIGH_ALARM_TEMP] = data >> 8;
 740:Core/Src/DallasTemperature.c **** 		scratchPad[LOW_ALARM_TEMP] = data & 255;
 741:Core/Src/DallasTemperature.c **** 		DT_WriteScratchPad(dt, deviceAddress, scratchPad);
 742:Core/Src/DallasTemperature.c **** 	}
 743:Core/Src/DallasTemperature.c **** }
 744:Core/Src/DallasTemperature.c **** 
 745:Core/Src/DallasTemperature.c **** int16_t DT_GetUserData(DallasTemperature_HandleTypeDef* dt, const uint8_t* deviceAddress)
 746:Core/Src/DallasTemperature.c **** {
 2601              		.loc 1 746 1 is_stmt 1 view -0
 2602              		.cfi_startproc
 2603              		@ args = 0, pretend = 0, frame = 16
 2604              		@ frame_needed = 0, uses_anonymous_args = 0
 2605              		.loc 1 746 1 is_stmt 0 view .LVU583
 2606 0000 00B5     		push	{lr}
 2607              		.cfi_def_cfa_offset 4
 2608              		.cfi_offset 14, -4
 2609 0002 85B0     		sub	sp, sp, #20
 2610              		.cfi_def_cfa_offset 24
 747:Core/Src/DallasTemperature.c **** 	int16_t data = 0;
 2611              		.loc 1 747 2 is_stmt 1 view .LVU584
 2612              	.LVL222:
 748:Core/Src/DallasTemperature.c **** 	ScratchPad scratchPad;
 2613              		.loc 1 748 2 view .LVU585
 749:Core/Src/DallasTemperature.c **** 	if (DT_IsConnected_ScratchPad(dt, deviceAddress, scratchPad))
 2614              		.loc 1 749 2 view .LVU586
 2615              		.loc 1 749 6 is_stmt 0 view .LVU587
 2616 0004 01AA     		add	r2, sp, #4
 2617 0006 FFF7FEFF 		bl	DT_IsConnected_ScratchPad
 2618              	.LVL223:
 2619              		.loc 1 749 5 view .LVU588
 2620 000a 48B1     		cbz	r0, .L194
 750:Core/Src/DallasTemperature.c **** 	{
 751:Core/Src/DallasTemperature.c **** 		data = scratchPad[HIGH_ALARM_TEMP] << 8;
 2621              		.loc 1 751 3 is_stmt 1 view .LVU589
 2622              		.loc 1 751 20 is_stmt 0 view .LVU590
 2623 000c 9DF80630 		ldrb	r3, [sp, #6]	@ zero_extendqisi2
 2624              	.LVL224:
 752:Core/Src/DallasTemperature.c **** 		data += scratchPad[LOW_ALARM_TEMP];
 2625              		.loc 1 752 3 is_stmt 1 view .LVU591
 2626              		.loc 1 752 21 is_stmt 0 view .LVU592
 2627 0010 9DF80700 		ldrb	r0, [sp, #7]	@ zero_extendqisi2
 2628              		.loc 1 752 8 view .LVU593
 2629 0014 00EB0320 		add	r0, r0, r3, lsl #8
 2630 0018 00B2     		sxth	r0, r0
 2631              	.LVL225:
 2632              	.L193:
 753:Core/Src/DallasTemperature.c **** 	}
 754:Core/Src/DallasTemperature.c **** 	return data;
 2633              		.loc 1 754 2 is_stmt 1 view .LVU594
ARM GAS  C:\Users\user\AppData\Local\Temp\ccGnldFX.s 			page 65


 755:Core/Src/DallasTemperature.c **** }
 2634              		.loc 1 755 1 is_stmt 0 view .LVU595
 2635 001a 05B0     		add	sp, sp, #20
 2636              		.cfi_remember_state
 2637              		.cfi_def_cfa_offset 4
 2638              		@ sp needed
 2639 001c 5DF804FB 		ldr	pc, [sp], #4
 2640              	.LVL226:
 2641              	.L194:
 2642              		.cfi_restore_state
 747:Core/Src/DallasTemperature.c **** 	ScratchPad scratchPad;
 2643              		.loc 1 747 10 view .LVU596
 2644 0020 0020     		movs	r0, #0
 2645 0022 FAE7     		b	.L193
 2646              		.cfi_endproc
 2647              	.LFE108:
 2649              		.section	.text.DT_SetUserData,"ax",%progbits
 2650              		.align	1
 2651              		.global	DT_SetUserData
 2652              		.syntax unified
 2653              		.thumb
 2654              		.thumb_func
 2655              		.fpu softvfp
 2657              	DT_SetUserData:
 2658              	.LVL227:
 2659              	.LFB107:
 731:Core/Src/DallasTemperature.c **** 	// return when stored value == new value
 2660              		.loc 1 731 1 is_stmt 1 view -0
 2661              		.cfi_startproc
 2662              		@ args = 0, pretend = 0, frame = 16
 2663              		@ frame_needed = 0, uses_anonymous_args = 0
 731:Core/Src/DallasTemperature.c **** 	// return when stored value == new value
 2664              		.loc 1 731 1 is_stmt 0 view .LVU598
 2665 0000 70B5     		push	{r4, r5, r6, lr}
 2666              		.cfi_def_cfa_offset 16
 2667              		.cfi_offset 4, -16
 2668              		.cfi_offset 5, -12
 2669              		.cfi_offset 6, -8
 2670              		.cfi_offset 14, -4
 2671 0002 84B0     		sub	sp, sp, #16
 2672              		.cfi_def_cfa_offset 32
 2673 0004 0546     		mov	r5, r0
 2674 0006 0E46     		mov	r6, r1
 2675 0008 1446     		mov	r4, r2
 733:Core/Src/DallasTemperature.c **** 		return;
 2676              		.loc 1 733 2 is_stmt 1 view .LVU599
 733:Core/Src/DallasTemperature.c **** 		return;
 2677              		.loc 1 733 6 is_stmt 0 view .LVU600
 2678 000a FFF7FEFF 		bl	DT_GetUserData
 2679              	.LVL228:
 733:Core/Src/DallasTemperature.c **** 		return;
 2680              		.loc 1 733 5 view .LVU601
 2681 000e A042     		cmp	r0, r4
 2682 0010 05D0     		beq	.L196
 736:Core/Src/DallasTemperature.c **** 	if (DT_IsConnected_ScratchPad(dt, deviceAddress, scratchPad))
 2683              		.loc 1 736 2 is_stmt 1 view .LVU602
 737:Core/Src/DallasTemperature.c **** 	{
ARM GAS  C:\Users\user\AppData\Local\Temp\ccGnldFX.s 			page 66


 2684              		.loc 1 737 2 view .LVU603
 737:Core/Src/DallasTemperature.c **** 	{
 2685              		.loc 1 737 6 is_stmt 0 view .LVU604
 2686 0012 01AA     		add	r2, sp, #4
 2687 0014 3146     		mov	r1, r6
 2688 0016 2846     		mov	r0, r5
 2689 0018 FFF7FEFF 		bl	DT_IsConnected_ScratchPad
 2690              	.LVL229:
 737:Core/Src/DallasTemperature.c **** 	{
 2691              		.loc 1 737 5 view .LVU605
 2692 001c 08B9     		cbnz	r0, .L201
 2693              	.L196:
 743:Core/Src/DallasTemperature.c **** 
 2694              		.loc 1 743 1 view .LVU606
 2695 001e 04B0     		add	sp, sp, #16
 2696              		.cfi_remember_state
 2697              		.cfi_def_cfa_offset 16
 2698              		@ sp needed
 2699 0020 70BD     		pop	{r4, r5, r6, pc}
 2700              	.LVL230:
 2701              	.L201:
 2702              		.cfi_restore_state
 739:Core/Src/DallasTemperature.c **** 		scratchPad[LOW_ALARM_TEMP] = data & 255;
 2703              		.loc 1 739 3 is_stmt 1 view .LVU607
 739:Core/Src/DallasTemperature.c **** 		scratchPad[LOW_ALARM_TEMP] = data & 255;
 2704              		.loc 1 739 31 is_stmt 0 view .LVU608
 2705 0022 2312     		asrs	r3, r4, #8
 2706 0024 8DF80630 		strb	r3, [sp, #6]
 740:Core/Src/DallasTemperature.c **** 		DT_WriteScratchPad(dt, deviceAddress, scratchPad);
 2707              		.loc 1 740 3 is_stmt 1 view .LVU609
 740:Core/Src/DallasTemperature.c **** 		DT_WriteScratchPad(dt, deviceAddress, scratchPad);
 2708              		.loc 1 740 30 is_stmt 0 view .LVU610
 2709 0028 8DF80740 		strb	r4, [sp, #7]
 741:Core/Src/DallasTemperature.c **** 	}
 2710              		.loc 1 741 3 is_stmt 1 view .LVU611
 2711 002c 01AA     		add	r2, sp, #4
 2712 002e 3146     		mov	r1, r6
 2713 0030 2846     		mov	r0, r5
 2714 0032 FFF7FEFF 		bl	DT_WriteScratchPad
 2715              	.LVL231:
 2716 0036 F2E7     		b	.L196
 2717              		.cfi_endproc
 2718              	.LFE107:
 2720              		.section	.text.DT_GetUserDataByIndex,"ax",%progbits
 2721              		.align	1
 2722              		.global	DT_GetUserDataByIndex
 2723              		.syntax unified
 2724              		.thumb
 2725              		.thumb_func
 2726              		.fpu softvfp
 2728              	DT_GetUserDataByIndex:
 2729              	.LVL232:
 2730              	.LFB109:
 756:Core/Src/DallasTemperature.c **** 
 757:Core/Src/DallasTemperature.c **** // note If address cannot be found no error will be reported.
 758:Core/Src/DallasTemperature.c **** int16_t DT_GetUserDataByIndex(DallasTemperature_HandleTypeDef* dt, uint8_t deviceIndex)
 759:Core/Src/DallasTemperature.c **** {
ARM GAS  C:\Users\user\AppData\Local\Temp\ccGnldFX.s 			page 67


 2731              		.loc 1 759 1 view -0
 2732              		.cfi_startproc
 2733              		@ args = 0, pretend = 0, frame = 8
 2734              		@ frame_needed = 0, uses_anonymous_args = 0
 2735              		.loc 1 759 1 is_stmt 0 view .LVU613
 2736 0000 10B5     		push	{r4, lr}
 2737              		.cfi_def_cfa_offset 8
 2738              		.cfi_offset 4, -8
 2739              		.cfi_offset 14, -4
 2740 0002 82B0     		sub	sp, sp, #8
 2741              		.cfi_def_cfa_offset 16
 2742 0004 0446     		mov	r4, r0
 2743 0006 0A46     		mov	r2, r1
 760:Core/Src/DallasTemperature.c **** 	CurrentDeviceAddress deviceAddress;
 2744              		.loc 1 760 2 is_stmt 1 view .LVU614
 761:Core/Src/DallasTemperature.c **** 	DT_GetAddress(dt, deviceAddress, deviceIndex);
 2745              		.loc 1 761 2 view .LVU615
 2746 0008 6946     		mov	r1, sp
 2747              	.LVL233:
 2748              		.loc 1 761 2 is_stmt 0 view .LVU616
 2749 000a FFF7FEFF 		bl	DT_GetAddress
 2750              	.LVL234:
 762:Core/Src/DallasTemperature.c **** 	return DT_GetUserData(dt, (uint8_t*) deviceAddress);
 2751              		.loc 1 762 2 is_stmt 1 view .LVU617
 2752              		.loc 1 762 9 is_stmt 0 view .LVU618
 2753 000e 6946     		mov	r1, sp
 2754 0010 2046     		mov	r0, r4
 2755 0012 FFF7FEFF 		bl	DT_GetUserData
 2756              	.LVL235:
 763:Core/Src/DallasTemperature.c **** }
 2757              		.loc 1 763 1 view .LVU619
 2758 0016 02B0     		add	sp, sp, #8
 2759              		.cfi_def_cfa_offset 8
 2760              		@ sp needed
 2761 0018 10BD     		pop	{r4, pc}
 2762              		.loc 1 763 1 view .LVU620
 2763              		.cfi_endproc
 2764              	.LFE109:
 2766              		.section	.text.DT_SetUserDataByIndex,"ax",%progbits
 2767              		.align	1
 2768              		.global	DT_SetUserDataByIndex
 2769              		.syntax unified
 2770              		.thumb
 2771              		.thumb_func
 2772              		.fpu softvfp
 2774              	DT_SetUserDataByIndex:
 2775              	.LVL236:
 2776              	.LFB110:
 764:Core/Src/DallasTemperature.c **** 
 765:Core/Src/DallasTemperature.c **** void DT_SetUserDataByIndex(DallasTemperature_HandleTypeDef* dt, uint8_t deviceIndex, int16_t data)
 766:Core/Src/DallasTemperature.c **** {
 2777              		.loc 1 766 1 is_stmt 1 view -0
 2778              		.cfi_startproc
 2779              		@ args = 0, pretend = 0, frame = 8
 2780              		@ frame_needed = 0, uses_anonymous_args = 0
 2781              		.loc 1 766 1 is_stmt 0 view .LVU622
 2782 0000 30B5     		push	{r4, r5, lr}
ARM GAS  C:\Users\user\AppData\Local\Temp\ccGnldFX.s 			page 68


 2783              		.cfi_def_cfa_offset 12
 2784              		.cfi_offset 4, -12
 2785              		.cfi_offset 5, -8
 2786              		.cfi_offset 14, -4
 2787 0002 83B0     		sub	sp, sp, #12
 2788              		.cfi_def_cfa_offset 24
 2789 0004 0446     		mov	r4, r0
 2790 0006 1546     		mov	r5, r2
 767:Core/Src/DallasTemperature.c **** 	CurrentDeviceAddress deviceAddress;
 2791              		.loc 1 767 2 is_stmt 1 view .LVU623
 768:Core/Src/DallasTemperature.c **** 	DT_GetAddress(dt, deviceAddress, deviceIndex);
 2792              		.loc 1 768 2 view .LVU624
 2793 0008 0A46     		mov	r2, r1
 2794              	.LVL237:
 2795              		.loc 1 768 2 is_stmt 0 view .LVU625
 2796 000a 6946     		mov	r1, sp
 2797              	.LVL238:
 2798              		.loc 1 768 2 view .LVU626
 2799 000c FFF7FEFF 		bl	DT_GetAddress
 2800              	.LVL239:
 769:Core/Src/DallasTemperature.c **** 	DT_SetUserData(dt, (uint8_t*) deviceAddress, data);
 2801              		.loc 1 769 2 is_stmt 1 view .LVU627
 2802 0010 2A46     		mov	r2, r5
 2803 0012 6946     		mov	r1, sp
 2804 0014 2046     		mov	r0, r4
 2805 0016 FFF7FEFF 		bl	DT_SetUserData
 2806              	.LVL240:
 770:Core/Src/DallasTemperature.c **** }
 2807              		.loc 1 770 1 is_stmt 0 view .LVU628
 2808 001a 03B0     		add	sp, sp, #12
 2809              		.cfi_def_cfa_offset 12
 2810              		@ sp needed
 2811 001c 30BD     		pop	{r4, r5, pc}
 2812              		.loc 1 770 1 view .LVU629
 2813              		.cfi_endproc
 2814              	.LFE110:
 2816              		.global	__aeabi_f2d
 2817              		.global	__aeabi_dmul
 2818              		.global	__aeabi_dadd
 2819              		.global	__aeabi_d2f
 2820              		.section	.text.DT_ToFahrenheit,"ax",%progbits
 2821              		.align	1
 2822              		.global	DT_ToFahrenheit
 2823              		.syntax unified
 2824              		.thumb
 2825              		.thumb_func
 2826              		.fpu softvfp
 2828              	DT_ToFahrenheit:
 2829              	.LVL241:
 2830              	.LFB111:
 771:Core/Src/DallasTemperature.c **** 
 772:Core/Src/DallasTemperature.c **** // Convert float Celsius to Fahrenheit
 773:Core/Src/DallasTemperature.c **** float DT_ToFahrenheit(float celsius)
 774:Core/Src/DallasTemperature.c **** {
 2831              		.loc 1 774 1 is_stmt 1 view -0
 2832              		.cfi_startproc
 2833              		@ args = 0, pretend = 0, frame = 0
ARM GAS  C:\Users\user\AppData\Local\Temp\ccGnldFX.s 			page 69


 2834              		@ frame_needed = 0, uses_anonymous_args = 0
 2835              		.loc 1 774 1 is_stmt 0 view .LVU631
 2836 0000 08B5     		push	{r3, lr}
 2837              		.cfi_def_cfa_offset 8
 2838              		.cfi_offset 3, -8
 2839              		.cfi_offset 14, -4
 775:Core/Src/DallasTemperature.c **** 	return (celsius * 1.8) + 32;
 2840              		.loc 1 775 2 is_stmt 1 view .LVU632
 2841              		.loc 1 775 18 is_stmt 0 view .LVU633
 2842 0002 FFF7FEFF 		bl	__aeabi_f2d
 2843              	.LVL242:
 2844              		.loc 1 775 18 view .LVU634
 2845 0006 06A3     		adr	r3, .L208
 2846 0008 D3E90023 		ldrd	r2, [r3]
 2847 000c FFF7FEFF 		bl	__aeabi_dmul
 2848              	.LVL243:
 2849              		.loc 1 775 25 view .LVU635
 2850 0010 0022     		movs	r2, #0
 2851 0012 054B     		ldr	r3, .L208+8
 2852 0014 FFF7FEFF 		bl	__aeabi_dadd
 2853              	.LVL244:
 2854 0018 FFF7FEFF 		bl	__aeabi_d2f
 2855              	.LVL245:
 776:Core/Src/DallasTemperature.c **** }
 2856              		.loc 1 776 1 view .LVU636
 2857 001c 08BD     		pop	{r3, pc}
 2858              	.L209:
 2859 001e 00BF     		.align	3
 2860              	.L208:
 2861 0020 CDCCCCCC 		.word	-858993459
 2862 0024 CCCCFC3F 		.word	1073532108
 2863 0028 00004040 		.word	1077936128
 2864              		.cfi_endproc
 2865              	.LFE111:
 2867              		.global	__aeabi_fsub
 2868              		.section	.text.DT_ToCelsius,"ax",%progbits
 2869              		.align	1
 2870              		.global	DT_ToCelsius
 2871              		.syntax unified
 2872              		.thumb
 2873              		.thumb_func
 2874              		.fpu softvfp
 2876              	DT_ToCelsius:
 2877              	.LVL246:
 2878              	.LFB112:
 777:Core/Src/DallasTemperature.c **** 
 778:Core/Src/DallasTemperature.c **** // Convert float Fahrenheit to Celsius
 779:Core/Src/DallasTemperature.c **** float DT_ToCelsius(float fahrenheit)
 780:Core/Src/DallasTemperature.c **** {
 2879              		.loc 1 780 1 is_stmt 1 view -0
 2880              		.cfi_startproc
 2881              		@ args = 0, pretend = 0, frame = 0
 2882              		@ frame_needed = 0, uses_anonymous_args = 0
 2883              		.loc 1 780 1 is_stmt 0 view .LVU638
 2884 0000 08B5     		push	{r3, lr}
 2885              		.cfi_def_cfa_offset 8
 2886              		.cfi_offset 3, -8
ARM GAS  C:\Users\user\AppData\Local\Temp\ccGnldFX.s 			page 70


 2887              		.cfi_offset 14, -4
 781:Core/Src/DallasTemperature.c **** 	return (fahrenheit - 32) * 0.555555556;
 2888              		.loc 1 781 2 is_stmt 1 view .LVU639
 2889              		.loc 1 781 21 is_stmt 0 view .LVU640
 2890 0002 4FF08441 		mov	r1, #1107296256
 2891 0006 FFF7FEFF 		bl	__aeabi_fsub
 2892              	.LVL247:
 2893              		.loc 1 781 21 view .LVU641
 2894 000a FFF7FEFF 		bl	__aeabi_f2d
 2895              	.LVL248:
 2896              		.loc 1 781 27 view .LVU642
 2897 000e 04A3     		adr	r3, .L212
 2898 0010 D3E90023 		ldrd	r2, [r3]
 2899 0014 FFF7FEFF 		bl	__aeabi_dmul
 2900              	.LVL249:
 2901 0018 FFF7FEFF 		bl	__aeabi_d2f
 2902              	.LVL250:
 782:Core/Src/DallasTemperature.c **** }
 2903              		.loc 1 782 1 view .LVU643
 2904 001c 08BD     		pop	{r3, pc}
 2905              	.L213:
 2906 001e 00BF     		.align	3
 2907              	.L212:
 2908 0020 F1310472 		.word	1912877553
 2909 0024 1CC7E13F 		.word	1071761180
 2910              		.cfi_endproc
 2911              	.LFE112:
 2913              		.global	__aeabi_i2f
 2914              		.global	__aeabi_fmul
 2915              		.section	.text.DT_RawToCelsius,"ax",%progbits
 2916              		.align	1
 2917              		.global	DT_RawToCelsius
 2918              		.syntax unified
 2919              		.thumb
 2920              		.thumb_func
 2921              		.fpu softvfp
 2923              	DT_RawToCelsius:
 2924              	.LVL251:
 2925              	.LFB113:
 783:Core/Src/DallasTemperature.c **** 
 784:Core/Src/DallasTemperature.c **** // convert from raw to Celsius
 785:Core/Src/DallasTemperature.c **** float DT_RawToCelsius(int16_t raw)
 786:Core/Src/DallasTemperature.c **** {
 2926              		.loc 1 786 1 is_stmt 1 view -0
 2927              		.cfi_startproc
 2928              		@ args = 0, pretend = 0, frame = 0
 2929              		@ frame_needed = 0, uses_anonymous_args = 0
 787:Core/Src/DallasTemperature.c **** 	if (raw <= DEVICE_DISCONNECTED_RAW)
 2930              		.loc 1 787 2 view .LVU645
 2931              		.loc 1 787 5 is_stmt 0 view .LVU646
 2932 0000 10F5DC5F 		cmn	r0, #7040
 2933 0004 07DD     		ble	.L216
 786:Core/Src/DallasTemperature.c **** 	if (raw <= DEVICE_DISCONNECTED_RAW)
 2934              		.loc 1 786 1 view .LVU647
 2935 0006 08B5     		push	{r3, lr}
 2936              		.cfi_def_cfa_offset 8
 2937              		.cfi_offset 3, -8
ARM GAS  C:\Users\user\AppData\Local\Temp\ccGnldFX.s 			page 71


 2938              		.cfi_offset 14, -4
 788:Core/Src/DallasTemperature.c **** 		return DEVICE_DISCONNECTED_C;
 789:Core/Src/DallasTemperature.c **** 	// C = RAW/128
 790:Core/Src/DallasTemperature.c **** 	return (float) raw * 0.0078125;
 2939              		.loc 1 790 2 is_stmt 1 view .LVU648
 2940              		.loc 1 790 9 is_stmt 0 view .LVU649
 2941 0008 FFF7FEFF 		bl	__aeabi_i2f
 2942              	.LVL252:
 2943              		.loc 1 790 21 view .LVU650
 2944 000c 4FF07051 		mov	r1, #1006632960
 2945 0010 FFF7FEFF 		bl	__aeabi_fmul
 2946              	.LVL253:
 791:Core/Src/DallasTemperature.c **** }
 2947              		.loc 1 791 1 view .LVU651
 2948 0014 08BD     		pop	{r3, pc}
 2949              	.LVL254:
 2950              	.L216:
 2951              		.cfi_def_cfa_offset 0
 2952              		.cfi_restore 3
 2953              		.cfi_restore 14
 788:Core/Src/DallasTemperature.c **** 		return DEVICE_DISCONNECTED_C;
 2954              		.loc 1 788 10 view .LVU652
 2955 0016 0148     		ldr	r0, .L221
 2956              	.LVL255:
 2957              		.loc 1 791 1 view .LVU653
 2958 0018 7047     		bx	lr
 2959              	.L222:
 2960 001a 00BF     		.align	2
 2961              	.L221:
 2962 001c 0000FEC2 		.word	-1023541248
 2963              		.cfi_endproc
 2964              	.LFE113:
 2966              		.section	.text.DT_GetTempC,"ax",%progbits
 2967              		.align	1
 2968              		.global	DT_GetTempC
 2969              		.syntax unified
 2970              		.thumb
 2971              		.thumb_func
 2972              		.fpu softvfp
 2974              	DT_GetTempC:
 2975              	.LVL256:
 2976              	.LFB104:
 705:Core/Src/DallasTemperature.c **** 	return DT_RawToCelsius(DT_GetTemp(dt, deviceAddress));
 2977              		.loc 1 705 1 is_stmt 1 view -0
 2978              		.cfi_startproc
 2979              		@ args = 0, pretend = 0, frame = 0
 2980              		@ frame_needed = 0, uses_anonymous_args = 0
 705:Core/Src/DallasTemperature.c **** 	return DT_RawToCelsius(DT_GetTemp(dt, deviceAddress));
 2981              		.loc 1 705 1 is_stmt 0 view .LVU655
 2982 0000 08B5     		push	{r3, lr}
 2983              		.cfi_def_cfa_offset 8
 2984              		.cfi_offset 3, -8
 2985              		.cfi_offset 14, -4
 706:Core/Src/DallasTemperature.c **** }
 2986              		.loc 1 706 2 is_stmt 1 view .LVU656
 706:Core/Src/DallasTemperature.c **** }
 2987              		.loc 1 706 9 is_stmt 0 view .LVU657
ARM GAS  C:\Users\user\AppData\Local\Temp\ccGnldFX.s 			page 72


 2988 0002 FFF7FEFF 		bl	DT_GetTemp
 2989              	.LVL257:
 706:Core/Src/DallasTemperature.c **** }
 2990              		.loc 1 706 9 view .LVU658
 2991 0006 FFF7FEFF 		bl	DT_RawToCelsius
 2992              	.LVL258:
 707:Core/Src/DallasTemperature.c **** 
 2993              		.loc 1 707 1 view .LVU659
 2994 000a 08BD     		pop	{r3, pc}
 2995              		.cfi_endproc
 2996              	.LFE104:
 2998              		.section	.text.DT_GetTempCByIndex,"ax",%progbits
 2999              		.align	1
 3000              		.global	DT_GetTempCByIndex
 3001              		.syntax unified
 3002              		.thumb
 3003              		.thumb_func
 3004              		.fpu softvfp
 3006              	DT_GetTempCByIndex:
 3007              	.LVL259:
 3008              	.LFB100:
 630:Core/Src/DallasTemperature.c **** 	CurrentDeviceAddress deviceAddress;
 3009              		.loc 1 630 1 is_stmt 1 view -0
 3010              		.cfi_startproc
 3011              		@ args = 0, pretend = 0, frame = 8
 3012              		@ frame_needed = 0, uses_anonymous_args = 0
 630:Core/Src/DallasTemperature.c **** 	CurrentDeviceAddress deviceAddress;
 3013              		.loc 1 630 1 is_stmt 0 view .LVU661
 3014 0000 10B5     		push	{r4, lr}
 3015              		.cfi_def_cfa_offset 8
 3016              		.cfi_offset 4, -8
 3017              		.cfi_offset 14, -4
 3018 0002 82B0     		sub	sp, sp, #8
 3019              		.cfi_def_cfa_offset 16
 3020 0004 0446     		mov	r4, r0
 3021 0006 0A46     		mov	r2, r1
 631:Core/Src/DallasTemperature.c **** 
 3022              		.loc 1 631 2 is_stmt 1 view .LVU662
 633:Core/Src/DallasTemperature.c **** 	{
 3023              		.loc 1 633 2 view .LVU663
 633:Core/Src/DallasTemperature.c **** 	{
 3024              		.loc 1 633 7 is_stmt 0 view .LVU664
 3025 0008 6946     		mov	r1, sp
 3026              	.LVL260:
 633:Core/Src/DallasTemperature.c **** 	{
 3027              		.loc 1 633 7 view .LVU665
 3028 000a FFF7FEFF 		bl	DT_GetAddress
 3029              	.LVL261:
 633:Core/Src/DallasTemperature.c **** 	{
 3030              		.loc 1 633 5 view .LVU666
 3031 000e 10B9     		cbnz	r0, .L229
 635:Core/Src/DallasTemperature.c **** 	}
 3032              		.loc 1 635 10 view .LVU667
 3033 0010 0348     		ldr	r0, .L230
 3034              	.L225:
 639:Core/Src/DallasTemperature.c **** 
 3035              		.loc 1 639 1 view .LVU668
ARM GAS  C:\Users\user\AppData\Local\Temp\ccGnldFX.s 			page 73


 3036 0012 02B0     		add	sp, sp, #8
 3037              		.cfi_remember_state
 3038              		.cfi_def_cfa_offset 8
 3039              		@ sp needed
 3040 0014 10BD     		pop	{r4, pc}
 3041              	.LVL262:
 3042              	.L229:
 3043              		.cfi_restore_state
 638:Core/Src/DallasTemperature.c **** }
 3044              		.loc 1 638 2 is_stmt 1 view .LVU669
 638:Core/Src/DallasTemperature.c **** }
 3045              		.loc 1 638 9 is_stmt 0 view .LVU670
 3046 0016 6946     		mov	r1, sp
 3047 0018 2046     		mov	r0, r4
 3048 001a FFF7FEFF 		bl	DT_GetTempC
 3049              	.LVL263:
 3050 001e F8E7     		b	.L225
 3051              	.L231:
 3052              		.align	2
 3053              	.L230:
 3054 0020 0000FEC2 		.word	-1023541248
 3055              		.cfi_endproc
 3056              	.LFE100:
 3058              		.section	.text.DT_RawToFahrenheit,"ax",%progbits
 3059              		.align	1
 3060              		.global	DT_RawToFahrenheit
 3061              		.syntax unified
 3062              		.thumb
 3063              		.thumb_func
 3064              		.fpu softvfp
 3066              	DT_RawToFahrenheit:
 3067              	.LVL264:
 3068              	.LFB114:
 792:Core/Src/DallasTemperature.c **** 
 793:Core/Src/DallasTemperature.c **** // convert from raw to Fahrenheit
 794:Core/Src/DallasTemperature.c **** float DT_RawToFahrenheit(int16_t raw)
 795:Core/Src/DallasTemperature.c **** {
 3069              		.loc 1 795 1 is_stmt 1 view -0
 3070              		.cfi_startproc
 3071              		@ args = 0, pretend = 0, frame = 0
 3072              		@ frame_needed = 0, uses_anonymous_args = 0
 796:Core/Src/DallasTemperature.c **** 	if (raw <= DEVICE_DISCONNECTED_RAW)
 3073              		.loc 1 796 2 view .LVU672
 3074              		.loc 1 796 5 is_stmt 0 view .LVU673
 3075 0000 10F5DC5F 		cmn	r0, #7040
 3076 0004 10DD     		ble	.L234
 795:Core/Src/DallasTemperature.c **** 	if (raw <= DEVICE_DISCONNECTED_RAW)
 3077              		.loc 1 795 1 view .LVU674
 3078 0006 08B5     		push	{r3, lr}
 3079              		.cfi_def_cfa_offset 8
 3080              		.cfi_offset 3, -8
 3081              		.cfi_offset 14, -4
 797:Core/Src/DallasTemperature.c **** 		return DEVICE_DISCONNECTED_F;
 798:Core/Src/DallasTemperature.c **** 	// C = RAW/128
 799:Core/Src/DallasTemperature.c **** 	// F = (C*1.8)+32 = (RAW/128*1.8)+32 = (RAW*0.0140625)+32
 800:Core/Src/DallasTemperature.c **** 	return ((float) raw * 0.0140625) + 32;
 3082              		.loc 1 800 2 is_stmt 1 view .LVU675
ARM GAS  C:\Users\user\AppData\Local\Temp\ccGnldFX.s 			page 74


 3083              		.loc 1 800 10 is_stmt 0 view .LVU676
 3084 0008 FFF7FEFF 		bl	__aeabi_i2f
 3085              	.LVL265:
 3086              		.loc 1 800 10 view .LVU677
 3087 000c FFF7FEFF 		bl	__aeabi_f2d
 3088              	.LVL266:
 3089              		.loc 1 800 22 view .LVU678
 3090 0010 07A3     		adr	r3, .L239
 3091 0012 D3E90023 		ldrd	r2, [r3]
 3092 0016 FFF7FEFF 		bl	__aeabi_dmul
 3093              	.LVL267:
 3094              		.loc 1 800 35 view .LVU679
 3095 001a 0022     		movs	r2, #0
 3096 001c 064B     		ldr	r3, .L239+8
 3097 001e FFF7FEFF 		bl	__aeabi_dadd
 3098              	.LVL268:
 3099 0022 FFF7FEFF 		bl	__aeabi_d2f
 3100              	.LVL269:
 801:Core/Src/DallasTemperature.c **** }
 3101              		.loc 1 801 1 view .LVU680
 3102 0026 08BD     		pop	{r3, pc}
 3103              	.LVL270:
 3104              	.L234:
 3105              		.cfi_def_cfa_offset 0
 3106              		.cfi_restore 3
 3107              		.cfi_restore 14
 797:Core/Src/DallasTemperature.c **** 		return DEVICE_DISCONNECTED_F;
 3108              		.loc 1 797 10 view .LVU681
 3109 0028 0448     		ldr	r0, .L239+12
 3110              	.LVL271:
 3111              		.loc 1 801 1 view .LVU682
 3112 002a 7047     		bx	lr
 3113              	.L240:
 3114 002c AFF30080 		.align	3
 3115              	.L239:
 3116 0030 CDCCCCCC 		.word	-858993459
 3117 0034 CCCC8C3F 		.word	1066192076
 3118 0038 00004040 		.word	1077936128
 3119 003c 9A9944C3 		.word	-1018914406
 3120              		.cfi_endproc
 3121              	.LFE114:
 3123              		.section	.text.DT_GetTempF,"ax",%progbits
 3124              		.align	1
 3125              		.global	DT_GetTempF
 3126              		.syntax unified
 3127              		.thumb
 3128              		.thumb_func
 3129              		.fpu softvfp
 3131              	DT_GetTempF:
 3132              	.LVL272:
 3133              	.LFB105:
 715:Core/Src/DallasTemperature.c **** 	return DT_RawToFahrenheit(DT_GetTemp(dt, deviceAddress));
 3134              		.loc 1 715 1 is_stmt 1 view -0
 3135              		.cfi_startproc
 3136              		@ args = 0, pretend = 0, frame = 0
 3137              		@ frame_needed = 0, uses_anonymous_args = 0
 715:Core/Src/DallasTemperature.c **** 	return DT_RawToFahrenheit(DT_GetTemp(dt, deviceAddress));
ARM GAS  C:\Users\user\AppData\Local\Temp\ccGnldFX.s 			page 75


 3138              		.loc 1 715 1 is_stmt 0 view .LVU684
 3139 0000 08B5     		push	{r3, lr}
 3140              		.cfi_def_cfa_offset 8
 3141              		.cfi_offset 3, -8
 3142              		.cfi_offset 14, -4
 716:Core/Src/DallasTemperature.c **** }
 3143              		.loc 1 716 2 is_stmt 1 view .LVU685
 716:Core/Src/DallasTemperature.c **** }
 3144              		.loc 1 716 9 is_stmt 0 view .LVU686
 3145 0002 FFF7FEFF 		bl	DT_GetTemp
 3146              	.LVL273:
 716:Core/Src/DallasTemperature.c **** }
 3147              		.loc 1 716 9 view .LVU687
 3148 0006 FFF7FEFF 		bl	DT_RawToFahrenheit
 3149              	.LVL274:
 717:Core/Src/DallasTemperature.c **** 
 3150              		.loc 1 717 1 view .LVU688
 3151 000a 08BD     		pop	{r3, pc}
 3152              		.cfi_endproc
 3153              	.LFE105:
 3155              		.section	.text.DT_GetTempFByIndex,"ax",%progbits
 3156              		.align	1
 3157              		.global	DT_GetTempFByIndex
 3158              		.syntax unified
 3159              		.thumb
 3160              		.thumb_func
 3161              		.fpu softvfp
 3163              	DT_GetTempFByIndex:
 3164              	.LVL275:
 3165              	.LFB101:
 643:Core/Src/DallasTemperature.c **** 	CurrentDeviceAddress deviceAddress;
 3166              		.loc 1 643 1 is_stmt 1 view -0
 3167              		.cfi_startproc
 3168              		@ args = 0, pretend = 0, frame = 8
 3169              		@ frame_needed = 0, uses_anonymous_args = 0
 643:Core/Src/DallasTemperature.c **** 	CurrentDeviceAddress deviceAddress;
 3170              		.loc 1 643 1 is_stmt 0 view .LVU690
 3171 0000 10B5     		push	{r4, lr}
 3172              		.cfi_def_cfa_offset 8
 3173              		.cfi_offset 4, -8
 3174              		.cfi_offset 14, -4
 3175 0002 82B0     		sub	sp, sp, #8
 3176              		.cfi_def_cfa_offset 16
 3177 0004 0446     		mov	r4, r0
 3178 0006 0A46     		mov	r2, r1
 644:Core/Src/DallasTemperature.c **** 
 3179              		.loc 1 644 2 is_stmt 1 view .LVU691
 646:Core/Src/DallasTemperature.c **** 	{
 3180              		.loc 1 646 2 view .LVU692
 646:Core/Src/DallasTemperature.c **** 	{
 3181              		.loc 1 646 7 is_stmt 0 view .LVU693
 3182 0008 6946     		mov	r1, sp
 3183              	.LVL276:
 646:Core/Src/DallasTemperature.c **** 	{
 3184              		.loc 1 646 7 view .LVU694
 3185 000a FFF7FEFF 		bl	DT_GetAddress
 3186              	.LVL277:
ARM GAS  C:\Users\user\AppData\Local\Temp\ccGnldFX.s 			page 76


 646:Core/Src/DallasTemperature.c **** 	{
 3187              		.loc 1 646 5 view .LVU695
 3188 000e 10B9     		cbnz	r0, .L247
 648:Core/Src/DallasTemperature.c **** 	}
 3189              		.loc 1 648 10 view .LVU696
 3190 0010 0348     		ldr	r0, .L248
 3191              	.L243:
 652:Core/Src/DallasTemperature.c **** 
 3192              		.loc 1 652 1 view .LVU697
 3193 0012 02B0     		add	sp, sp, #8
 3194              		.cfi_remember_state
 3195              		.cfi_def_cfa_offset 8
 3196              		@ sp needed
 3197 0014 10BD     		pop	{r4, pc}
 3198              	.LVL278:
 3199              	.L247:
 3200              		.cfi_restore_state
 651:Core/Src/DallasTemperature.c **** }
 3201              		.loc 1 651 2 is_stmt 1 view .LVU698
 651:Core/Src/DallasTemperature.c **** }
 3202              		.loc 1 651 9 is_stmt 0 view .LVU699
 3203 0016 6946     		mov	r1, sp
 3204 0018 2046     		mov	r0, r4
 3205 001a FFF7FEFF 		bl	DT_GetTempF
 3206              	.LVL279:
 3207 001e F8E7     		b	.L243
 3208              	.L249:
 3209              		.align	2
 3210              	.L248:
 3211 0020 9A9944C3 		.word	-1018914406
 3212              		.cfi_endproc
 3213              	.LFE101:
 3215              		.section	.rodata
 3216              		.align	2
 3217              		.set	.LANCHOR0,. + 0
 3218              	.LC0:
 3219 0000 55000000 		.ascii	"U\000\000\000\000\000\000\000\000\276\377\377\377\377"
 3219      00000000 
 3219      00BEFFFF 
 3219      FFFF
 3220 000e FFFFFFFF 		.ascii	"\377\377\377\377\377"
 3220      FF
 3221 0013 00       		.space	1
 3222              	.LC1:
 3223 0014 55000000 		.ascii	"U\000\000\000\000\000\000\000\000\264\377"
 3223      00000000 
 3223      00B4FF
 3224 001f 00       		.space	1
 3225              	.LC3:
 3226 0020 55000000 		.ascii	"U\000\000\000\000\000\000\000\000D"
 3226      00000000 
 3226      0044
 3227 002a 0000     		.space	2
 3228              	.LC4:
 3229 002c 00000000 		.ascii	"\000\000\000\000\000\000\000\000\000\000"
 3229      00000000 
 3229      0000
ARM GAS  C:\Users\user\AppData\Local\Temp\ccGnldFX.s 			page 77


 3230              		.text
 3231              	.Letext0:
 3232              		.file 2 "c:\\users\\user\\appdata\\roaming\\code\\user\\globalstorage\\bmd.stm32-for-vscode\\@xpac
 3233              		.file 3 "c:\\users\\user\\appdata\\roaming\\code\\user\\globalstorage\\bmd.stm32-for-vscode\\@xpac
 3234              		.file 4 "Drivers/CMSIS/Device/ST/STM32F1xx/Include/stm32f103xb.h"
 3235              		.file 5 "Drivers/STM32F1xx_HAL_Driver/Inc/stm32f1xx_hal_def.h"
 3236              		.file 6 "Drivers/STM32F1xx_HAL_Driver/Inc/stm32f1xx_hal_gpio.h"
 3237              		.file 7 "Drivers/STM32F1xx_HAL_Driver/Inc/stm32f1xx_hal_dma.h"
 3238              		.file 8 "Drivers/STM32F1xx_HAL_Driver/Inc/stm32f1xx_hal_uart.h"
 3239              		.file 9 "Core/Inc/OneWire.h"
 3240              		.file 10 "Core/Inc/DallasTemperature.h"
 3241              		.file 11 "Drivers/STM32F1xx_HAL_Driver/Inc/stm32f1xx_hal.h"
ARM GAS  C:\Users\user\AppData\Local\Temp\ccGnldFX.s 			page 78

