ARM GAS  C:\Users\user\AppData\Local\Temp\ccmVtHmX.s 			page 1


   1              		.cpu cortex-m3
   2              		.eabi_attribute 20, 1
   3              		.eabi_attribute 21, 1
   4              		.eabi_attribute 23, 3
   5              		.eabi_attribute 24, 1
   6              		.eabi_attribute 25, 1
   7              		.eabi_attribute 26, 1
   8              		.eabi_attribute 30, 1
   9              		.eabi_attribute 34, 1
  10              		.eabi_attribute 18, 4
  11              		.file	"Detector.c"
  12              		.text
  13              	.Ltext0:
  14              		.cfi_sections	.debug_frame
  15              		.section	.text.Detector_Init_Param,"ax",%progbits
  16              		.align	1
  17              		.global	Detector_Init_Param
  18              		.arch armv7-m
  19              		.syntax unified
  20              		.thumb
  21              		.thumb_func
  22              		.fpu softvfp
  24              	Detector_Init_Param:
  25              	.LVL0:
  26              	.LFB68:
  27              		.file 1 "Core/Src/Code/Detector.c"
   1:Core/Src/Code/Detector.c **** #include "Detector.h"
   2:Core/Src/Code/Detector.c **** #
   3:Core/Src/Code/Detector.c **** static float Detector_Kg =_default_KG;
   4:Core/Src/Code/Detector.c **** static float Detector_Bg =_default_BG;
   5:Core/Src/Code/Detector.c **** 
   6:Core/Src/Code/Detector.c **** // Setting Param Detector
   7:Core/Src/Code/Detector.c **** void  Detector_Init_Param(float Set_Kg, float Set_Bg) {
  28              		.loc 1 7 55 view -0
  29              		.cfi_startproc
  30              		@ args = 0, pretend = 0, frame = 0
  31              		@ frame_needed = 0, uses_anonymous_args = 0
  32              		@ link register save eliminated.
   8:Core/Src/Code/Detector.c ****  Detector_Kg = Set_Kg;
  33              		.loc 1 8 2 view .LVU1
  34              		.loc 1 8 14 is_stmt 0 view .LVU2
  35 0000 024B     		ldr	r3, .L2
  36 0002 1860     		str	r0, [r3]	@ float
   9:Core/Src/Code/Detector.c ****  Detector_Bg = Set_Bg;
  37              		.loc 1 9 2 is_stmt 1 view .LVU3
  38              		.loc 1 9 14 is_stmt 0 view .LVU4
  39 0004 024B     		ldr	r3, .L2+4
  40 0006 1960     		str	r1, [r3]	@ float
  10:Core/Src/Code/Detector.c **** }
  41              		.loc 1 10 1 view .LVU5
  42 0008 7047     		bx	lr
  43              	.L3:
  44 000a 00BF     		.align	2
  45              	.L2:
  46 000c 00000000 		.word	.LANCHOR0
  47 0010 00000000 		.word	.LANCHOR1
  48              		.cfi_endproc
ARM GAS  C:\Users\user\AppData\Local\Temp\ccmVtHmX.s 			page 2


  49              	.LFE68:
  51              		.global	__aeabi_fcmpgt
  52              		.global	__aeabi_fsub
  53              		.global	__aeabi_fmul
  54              		.section	.text.Detector_GetuZvValue,"ax",%progbits
  55              		.align	1
  56              		.global	Detector_GetuZvValue
  57              		.syntax unified
  58              		.thumb
  59              		.thumb_func
  60              		.fpu softvfp
  62              	Detector_GetuZvValue:
  63              	.LVL1:
  64              	.LFB69:
  11:Core/Src/Code/Detector.c **** 
  12:Core/Src/Code/Detector.c **** // Get Value [uSv/h]
  13:Core/Src/Code/Detector.c **** float Detector_GetuZvValue(TStatus_Stat* Stat) {
  65              		.loc 1 13 48 is_stmt 1 view -0
  66              		.cfi_startproc
  67              		@ args = 0, pretend = 0, frame = 0
  68              		@ frame_needed = 0, uses_anonymous_args = 0
  69              		.loc 1 13 48 is_stmt 0 view .LVU7
  70 0000 38B5     		push	{r3, r4, r5, lr}
  71              		.cfi_def_cfa_offset 16
  72              		.cfi_offset 3, -16
  73              		.cfi_offset 4, -12
  74              		.cfi_offset 5, -8
  75              		.cfi_offset 14, -4
  14:Core/Src/Code/Detector.c ****   float DER;
  76              		.loc 1 14 3 is_stmt 1 view .LVU8
  15:Core/Src/Code/Detector.c ****   DER  = (Stat->CPS>Detector_Bg) ? (Stat->CPS-Detector_Bg) : (Stat->CPS);
  77              		.loc 1 15 3 view .LVU9
  78              		.loc 1 15 15 is_stmt 0 view .LVU10
  79 0002 4468     		ldr	r4, [r0, #4]	@ float
  80              		.loc 1 15 20 view .LVU11
  81 0004 084B     		ldr	r3, .L9
  82 0006 1D68     		ldr	r5, [r3]	@ float
  83              		.loc 1 15 60 view .LVU12
  84 0008 2946     		mov	r1, r5
  85 000a 2046     		mov	r0, r4
  86              	.LVL2:
  87              		.loc 1 15 60 view .LVU13
  88 000c FFF7FEFF 		bl	__aeabi_fcmpgt
  89              	.LVL3:
  90 0010 20B1     		cbz	r0, .L5
  91              		.loc 1 15 60 discriminator 1 view .LVU14
  92 0012 2946     		mov	r1, r5
  93 0014 2046     		mov	r0, r4
  94 0016 FFF7FEFF 		bl	__aeabi_fsub
  95              	.LVL4:
  96 001a 0446     		mov	r4, r0
  97              	.L5:
  98              	.LVL5:
  16:Core/Src/Code/Detector.c ****   DER *= Detector_Kg;
  99              		.loc 1 16 3 is_stmt 1 discriminator 4 view .LVU15
 100              		.loc 1 16 7 is_stmt 0 discriminator 4 view .LVU16
 101 001c 034B     		ldr	r3, .L9+4
ARM GAS  C:\Users\user\AppData\Local\Temp\ccmVtHmX.s 			page 3


 102 001e 1968     		ldr	r1, [r3]	@ float
 103 0020 2046     		mov	r0, r4
 104 0022 FFF7FEFF 		bl	__aeabi_fmul
 105              	.LVL6:
  17:Core/Src/Code/Detector.c ****   return DER; // [uSv/h]
 106              		.loc 1 17 3 is_stmt 1 discriminator 4 view .LVU17
  18:Core/Src/Code/Detector.c **** }
 107              		.loc 1 18 1 is_stmt 0 discriminator 4 view .LVU18
 108 0026 38BD     		pop	{r3, r4, r5, pc}
 109              	.L10:
 110              		.align	2
 111              	.L9:
 112 0028 00000000 		.word	.LANCHOR1
 113 002c 00000000 		.word	.LANCHOR0
 114              		.cfi_endproc
 115              	.LFE69:
 117              		.section	.text.Detector_Init,"ax",%progbits
 118              		.align	1
 119              		.global	Detector_Init
 120              		.syntax unified
 121              		.thumb
 122              		.thumb_func
 123              		.fpu softvfp
 125              	Detector_Init:
 126              	.LVL7:
 127              	.LFB70:
  19:Core/Src/Code/Detector.c **** 
  20:Core/Src/Code/Detector.c **** void Detector_Init(URE_GM_Detector* detector,float firstDg,float secondDg,Pin norm,Pin firstRl,Pin 
  21:Core/Src/Code/Detector.c **** {
 128              		.loc 1 21 1 is_stmt 1 view -0
 129              		.cfi_startproc
 130              		@ args = 28, pretend = 8, frame = 0
 131              		@ frame_needed = 0, uses_anonymous_args = 0
 132              		@ link register save eliminated.
 133              		.loc 1 21 1 is_stmt 0 view .LVU20
 134 0000 82B0     		sub	sp, sp, #8
 135              		.cfi_def_cfa_offset 8
 136 0002 8446     		mov	ip, r0
 137 0004 6846     		mov	r0, sp
 138 0006 40F8043F 		str	r3, [r0, #4]!
  22:Core/Src/Code/Detector.c ****   detector->firstDangerValue = firstDg;
 139              		.loc 1 22 3 is_stmt 1 view .LVU21
 140              		.loc 1 22 30 is_stmt 0 view .LVU22
 141 000a CCF80810 		str	r1, [ip, #8]	@ float
  23:Core/Src/Code/Detector.c ****   detector->secondDangerValue = secondDg;
 142              		.loc 1 23 3 is_stmt 1 view .LVU23
 143              		.loc 1 23 31 is_stmt 0 view .LVU24
 144 000e CCF80C20 		str	r2, [ip, #12]	@ float
  24:Core/Src/Code/Detector.c ****   detector->normalRelay = norm;
 145              		.loc 1 24 3 is_stmt 1 view .LVU25
 146              		.loc 1 24 25 is_stmt 0 view .LVU26
 147 0012 0CF12003 		add	r3, ip, #32
 148 0016 03C8     		ldm	r0, {r0, r1}
 149              	.LVL8:
 150              		.loc 1 24 25 view .LVU27
 151 0018 83E80300 		stm	r3, {r0, r1}
  25:Core/Src/Code/Detector.c ****   detector->firstDangerRelay = firstRl;
ARM GAS  C:\Users\user\AppData\Local\Temp\ccmVtHmX.s 			page 4


 152              		.loc 1 25 3 is_stmt 1 view .LVU28
 153              		.loc 1 25 30 is_stmt 0 view .LVU29
 154 001c 0CF12803 		add	r3, ip, #40
 155 0020 03AA     		add	r2, sp, #12
 156 0022 92E80300 		ldm	r2, {r0, r1}
 157 0026 83E80300 		stm	r3, {r0, r1}
  26:Core/Src/Code/Detector.c ****   detector->secondDangerRelay = secondRl;
 158              		.loc 1 26 3 is_stmt 1 view .LVU30
 159              		.loc 1 26 31 is_stmt 0 view .LVU31
 160 002a 0CF1300C 		add	ip, ip, #48
 161              	.LVL9:
 162              		.loc 1 26 31 view .LVU32
 163 002e 05AB     		add	r3, sp, #20
 164 0030 93E80300 		ldm	r3, {r0, r1}
 165 0034 8CE80300 		stm	ip, {r0, r1}
  27:Core/Src/Code/Detector.c **** }
 166              		.loc 1 27 1 view .LVU33
 167 0038 02B0     		add	sp, sp, #8
 168              		.cfi_def_cfa_offset 0
 169 003a 7047     		bx	lr
 170              		.cfi_endproc
 171              	.LFE70:
 173              		.global	__aeabi_fcmple
 174              		.global	__aeabi_fcmpge
 175              		.global	__aeabi_fcmplt
 176              		.section	.text.RelaysStateProc,"ax",%progbits
 177              		.align	1
 178              		.global	RelaysStateProc
 179              		.syntax unified
 180              		.thumb
 181              		.thumb_func
 182              		.fpu softvfp
 184              	RelaysStateProc:
 185              	.LVL10:
 186              	.LFB71:
  28:Core/Src/Code/Detector.c **** 
  29:Core/Src/Code/Detector.c **** void RelaysStateProc(URE_GM_Detector* detector)
  30:Core/Src/Code/Detector.c **** {
 187              		.loc 1 30 1 is_stmt 1 view -0
 188              		.cfi_startproc
 189              		@ args = 0, pretend = 0, frame = 0
 190              		@ frame_needed = 0, uses_anonymous_args = 0
 191              		.loc 1 30 1 is_stmt 0 view .LVU35
 192 0000 70B5     		push	{r4, r5, r6, lr}
 193              		.cfi_def_cfa_offset 16
 194              		.cfi_offset 4, -16
 195              		.cfi_offset 5, -12
 196              		.cfi_offset 6, -8
 197              		.cfi_offset 14, -4
 198 0002 0446     		mov	r4, r0
  31:Core/Src/Code/Detector.c ****   if(detector->uSvValue <= detector->firstDangerValue)
 199              		.loc 1 31 3 is_stmt 1 view .LVU36
 200              		.loc 1 31 14 is_stmt 0 view .LVU37
 201 0004 0568     		ldr	r5, [r0]	@ float
 202              		.loc 1 31 36 view .LVU38
 203 0006 8668     		ldr	r6, [r0, #8]	@ float
 204              		.loc 1 31 5 view .LVU39
ARM GAS  C:\Users\user\AppData\Local\Temp\ccmVtHmX.s 			page 5


 205 0008 3146     		mov	r1, r6
 206 000a 2846     		mov	r0, r5
 207              	.LVL11:
 208              		.loc 1 31 5 view .LVU40
 209 000c FFF7FEFF 		bl	__aeabi_fcmple
 210              	.LVL12:
 211 0010 C8B9     		cbnz	r0, .L25
  32:Core/Src/Code/Detector.c ****   {
  33:Core/Src/Code/Detector.c ****     HAL_GPIO_WritePin(detector->normalRelay.Port,detector->normalRelay.Pin,1);
  34:Core/Src/Code/Detector.c ****     HAL_GPIO_WritePin(detector->firstDangerRelay.Port,detector->firstDangerRelay.Pin,0);
  35:Core/Src/Code/Detector.c ****     HAL_GPIO_WritePin(detector->secondDangerRelay.Port,detector->secondDangerRelay.Pin,0);
  36:Core/Src/Code/Detector.c ****   }
  37:Core/Src/Code/Detector.c ****   else if(detector->uSvValue >= detector->firstDangerValue && detector->uSvValue < detector->second
 212              		.loc 1 37 8 is_stmt 1 view .LVU41
 213              		.loc 1 37 10 is_stmt 0 view .LVU42
 214 0012 3146     		mov	r1, r6
 215 0014 2846     		mov	r0, r5
 216 0016 FFF7FEFF 		bl	__aeabi_fcmpge
 217              	.LVL13:
 218 001a 20B1     		cbz	r0, .L17
 219              		.loc 1 37 60 discriminator 1 view .LVU43
 220 001c E168     		ldr	r1, [r4, #12]	@ float
 221 001e 2846     		mov	r0, r5
 222 0020 FFF7FEFF 		bl	__aeabi_fcmplt
 223              	.LVL14:
 224 0024 F8B9     		cbnz	r0, .L26
 225              	.L17:
  38:Core/Src/Code/Detector.c ****   {
  39:Core/Src/Code/Detector.c ****     HAL_GPIO_WritePin(detector->normalRelay.Port,detector->normalRelay.Pin,0);
  40:Core/Src/Code/Detector.c ****     HAL_GPIO_WritePin(detector->firstDangerRelay.Port,detector->firstDangerRelay.Pin,1);
  41:Core/Src/Code/Detector.c ****     HAL_GPIO_WritePin(detector->secondDangerRelay.Port,detector->secondDangerRelay.Pin,0);
  42:Core/Src/Code/Detector.c ****   }
  43:Core/Src/Code/Detector.c ****   else 
  44:Core/Src/Code/Detector.c ****   {
  45:Core/Src/Code/Detector.c ****     HAL_GPIO_WritePin(detector->normalRelay.Port,detector->normalRelay.Pin,0);
 226              		.loc 1 45 5 is_stmt 1 view .LVU44
 227 0026 0022     		movs	r2, #0
 228 0028 A18C     		ldrh	r1, [r4, #36]
 229 002a 206A     		ldr	r0, [r4, #32]
 230 002c FFF7FEFF 		bl	HAL_GPIO_WritePin
 231              	.LVL15:
  46:Core/Src/Code/Detector.c ****     HAL_GPIO_WritePin(detector->firstDangerRelay.Port,detector->firstDangerRelay.Pin,0);
 232              		.loc 1 46 5 view .LVU45
 233 0030 0022     		movs	r2, #0
 234 0032 A18D     		ldrh	r1, [r4, #44]
 235 0034 A06A     		ldr	r0, [r4, #40]
 236 0036 FFF7FEFF 		bl	HAL_GPIO_WritePin
 237              	.LVL16:
  47:Core/Src/Code/Detector.c ****     HAL_GPIO_WritePin(detector->secondDangerRelay.Port,detector->secondDangerRelay.Pin,1);
 238              		.loc 1 47 5 view .LVU46
 239 003a 0122     		movs	r2, #1
 240 003c A18E     		ldrh	r1, [r4, #52]
 241 003e 206B     		ldr	r0, [r4, #48]
 242 0040 FFF7FEFF 		bl	HAL_GPIO_WritePin
 243              	.LVL17:
 244              	.L13:
  48:Core/Src/Code/Detector.c ****   }
ARM GAS  C:\Users\user\AppData\Local\Temp\ccmVtHmX.s 			page 6


  49:Core/Src/Code/Detector.c **** }
 245              		.loc 1 49 1 is_stmt 0 view .LVU47
 246 0044 70BD     		pop	{r4, r5, r6, pc}
 247              	.LVL18:
 248              	.L25:
  33:Core/Src/Code/Detector.c ****     HAL_GPIO_WritePin(detector->firstDangerRelay.Port,detector->firstDangerRelay.Pin,0);
 249              		.loc 1 33 5 is_stmt 1 view .LVU48
 250 0046 0122     		movs	r2, #1
 251 0048 A18C     		ldrh	r1, [r4, #36]
 252 004a 206A     		ldr	r0, [r4, #32]
 253 004c FFF7FEFF 		bl	HAL_GPIO_WritePin
 254              	.LVL19:
  34:Core/Src/Code/Detector.c ****     HAL_GPIO_WritePin(detector->secondDangerRelay.Port,detector->secondDangerRelay.Pin,0);
 255              		.loc 1 34 5 view .LVU49
 256 0050 0022     		movs	r2, #0
 257 0052 A18D     		ldrh	r1, [r4, #44]
 258 0054 A06A     		ldr	r0, [r4, #40]
 259 0056 FFF7FEFF 		bl	HAL_GPIO_WritePin
 260              	.LVL20:
  35:Core/Src/Code/Detector.c ****   }
 261              		.loc 1 35 5 view .LVU50
 262 005a 0022     		movs	r2, #0
 263 005c A18E     		ldrh	r1, [r4, #52]
 264 005e 206B     		ldr	r0, [r4, #48]
 265 0060 FFF7FEFF 		bl	HAL_GPIO_WritePin
 266              	.LVL21:
 267 0064 EEE7     		b	.L13
 268              	.L26:
  39:Core/Src/Code/Detector.c ****     HAL_GPIO_WritePin(detector->firstDangerRelay.Port,detector->firstDangerRelay.Pin,1);
 269              		.loc 1 39 5 view .LVU51
 270 0066 0022     		movs	r2, #0
 271 0068 A18C     		ldrh	r1, [r4, #36]
 272 006a 206A     		ldr	r0, [r4, #32]
 273 006c FFF7FEFF 		bl	HAL_GPIO_WritePin
 274              	.LVL22:
  40:Core/Src/Code/Detector.c ****     HAL_GPIO_WritePin(detector->secondDangerRelay.Port,detector->secondDangerRelay.Pin,0);
 275              		.loc 1 40 5 view .LVU52
 276 0070 0122     		movs	r2, #1
 277 0072 A18D     		ldrh	r1, [r4, #44]
 278 0074 A06A     		ldr	r0, [r4, #40]
 279 0076 FFF7FEFF 		bl	HAL_GPIO_WritePin
 280              	.LVL23:
  41:Core/Src/Code/Detector.c ****   }
 281              		.loc 1 41 5 view .LVU53
 282 007a 0022     		movs	r2, #0
 283 007c A18E     		ldrh	r1, [r4, #52]
 284 007e 206B     		ldr	r0, [r4, #48]
 285 0080 FFF7FEFF 		bl	HAL_GPIO_WritePin
 286              	.LVL24:
 287 0084 DEE7     		b	.L13
 288              		.cfi_endproc
 289              	.LFE71:
 291              		.section	.bss.Detector_Bg,"aw",%nobits
 292              		.align	2
 293              		.set	.LANCHOR1,. + 0
 296              	Detector_Bg:
 297 0000 00000000 		.space	4
ARM GAS  C:\Users\user\AppData\Local\Temp\ccmVtHmX.s 			page 7


 298              		.section	.data.Detector_Kg,"aw"
 299              		.align	2
 300              		.set	.LANCHOR0,. + 0
 303              	Detector_Kg:
 304 0000 6FD8B63A 		.word	985061487
 305              		.text
 306              	.Letext0:
 307              		.file 2 "c:\\users\\user\\appdata\\roaming\\code\\user\\globalstorage\\bmd.stm32-for-vscode\\@xpac
 308              		.file 3 "c:\\users\\user\\appdata\\roaming\\code\\user\\globalstorage\\bmd.stm32-for-vscode\\@xpac
 309              		.file 4 "Core/Src/Code/StatPM.h"
 310              		.file 5 "Core/Src/NOS_Typedefs.h"
 311              		.file 6 "Drivers/STM32F1xx_HAL_Driver/Inc/stm32f1xx_hal_gpio.h"
ARM GAS  C:\Users\user\AppData\Local\Temp\ccmVtHmX.s 			page 8

