ARM GAS  C:\Users\user\AppData\Local\Temp\ccPopRei.s 			page 1


   1              		.cpu cortex-m3
   2              		.eabi_attribute 20, 1
   3              		.eabi_attribute 21, 1
   4              		.eabi_attribute 23, 3
   5              		.eabi_attribute 24, 1
   6              		.eabi_attribute 25, 1
   7              		.eabi_attribute 26, 1
   8              		.eabi_attribute 30, 1
   9              		.eabi_attribute 34, 1
  10              		.eabi_attribute 18, 4
  11              		.file	"main.c"
  12              		.text
  13              	.Ltext0:
  14              		.cfi_sections	.debug_frame
  15              		.section	.text.MX_GPIO_Init,"ax",%progbits
  16              		.align	1
  17              		.arch armv7-m
  18              		.syntax unified
  19              		.thumb
  20              		.thumb_func
  21              		.fpu softvfp
  23              	MX_GPIO_Init:
  24              	.LFB81:
  25              		.file 1 "Core/Src/main.c"
   1:Core/Src/main.c **** /* USER CODE BEGIN Header */
   2:Core/Src/main.c **** /**
   3:Core/Src/main.c ****   ******************************************************************************
   4:Core/Src/main.c ****   * @file           : main.c
   5:Core/Src/main.c ****   * @brief          : Main program body
   6:Core/Src/main.c ****   ******************************************************************************
   7:Core/Src/main.c ****   * @attention
   8:Core/Src/main.c ****   *
   9:Core/Src/main.c ****   * <h2><center>&copy; Copyright (c) 2022 STMicroelectronics.
  10:Core/Src/main.c ****   * All rights reserved.</center></h2>
  11:Core/Src/main.c ****   *
  12:Core/Src/main.c ****   * This software component is licensed by ST under BSD 3-Clause license,
  13:Core/Src/main.c ****   * the "License"; You may not use this file except in compliance with the
  14:Core/Src/main.c ****   * License. You may obtain a copy of the License at:
  15:Core/Src/main.c ****   *                        opensource.org/licenses/BSD-3-Clause
  16:Core/Src/main.c ****   *
  17:Core/Src/main.c ****   ******************************************************************************
  18:Core/Src/main.c ****   */
  19:Core/Src/main.c **** /* USER CODE END Header */
  20:Core/Src/main.c **** /* Includes ------------------------------------------------------------------*/
  21:Core/Src/main.c **** #include "main.h"
  22:Core/Src/main.c **** 
  23:Core/Src/main.c **** /* Private includes ----------------------------------------------------------*/
  24:Core/Src/main.c **** /* USER CODE BEGIN Includes */
  25:Core/Src/main.c **** #include "NOS_ModBus.h"
  26:Core/Src/main.c **** #include "../Src/Code/Detector.h"
  27:Core/Src/main.c **** #include "OneWire.h"
  28:Core/Src/main.c **** #include "DallasTemperature.h"
  29:Core/Src/main.c **** //#include "DeviceIndication.h"
  30:Core/Src/main.c **** /* USER CODE END Includes */
  31:Core/Src/main.c **** 
  32:Core/Src/main.c **** /* Private typedef -----------------------------------------------------------*/
  33:Core/Src/main.c **** /* USER CODE BEGIN PTD */
ARM GAS  C:\Users\user\AppData\Local\Temp\ccPopRei.s 			page 2


  34:Core/Src/main.c **** 
  35:Core/Src/main.c **** /* USER CODE END PTD */
  36:Core/Src/main.c **** 
  37:Core/Src/main.c **** /* Private define ------------------------------------------------------------*/
  38:Core/Src/main.c **** /* USER CODE BEGIN PD */
  39:Core/Src/main.c **** //#define Debug
  40:Core/Src/main.c **** /* USER CODE END PD */
  41:Core/Src/main.c **** 
  42:Core/Src/main.c **** /* Private macro -------------------------------------------------------------*/
  43:Core/Src/main.c **** /* USER CODE BEGIN PM */
  44:Core/Src/main.c **** /*
  45:Core/Src/main.c **** Pin ledTX_Pin = {GPIOB,GPIO_PIN_3};
  46:Core/Src/main.c **** Pin ledRX_Pin = {GPIOB,GPIO_PIN_4};
  47:Core/Src/main.c **** Pin ledNormal_Pin = {GPIOB,GPIO_PIN_5};
  48:Core/Src/main.c **** Pin ledProblem_Pin = {GPIOB,GPIO_PIN_6};
  49:Core/Src/main.c **** Pin ledTick_Pin = {GPIOB,GPIO_PIN_7};
  50:Core/Src/main.c **** Pin ledControl_Pin = {GPIOC,GPIO_PIN_13};
  51:Core/Src/main.c **** 
  52:Core/Src/main.c **** Pin normalRelay_Pin = {GPIOA,GPIO_PIN_12};
  53:Core/Src/main.c **** Pin firstRelay_Pin = {GPIOA,GPIO_PIN_12};
  54:Core/Src/main.c **** Pin secondRelay_Pin = {GPIOA,GPIO_PIN_12};
  55:Core/Src/main.c **** 
  56:Core/Src/main.c **** Led TX_Led = {&ledTX_Pin,false};
  57:Core/Src/main.c **** Led RX_Led = {&ledRX_Pin,false};
  58:Core/Src/main.c **** Led Normal_Led = {&ledNormal_Pin,false};
  59:Core/Src/main.c **** Led Problem_Led = {&ledProblem_Pin,false};
  60:Core/Src/main.c **** Led Tick_Led = {&ledTick_Pin,false};
  61:Core/Src/main.c **** Led Control_Led = {&ledControl_Pin,false};
  62:Core/Src/main.c **** 
  63:Core/Src/main.c **** Led normalRelay = {&normalRelay_Pin,false};
  64:Core/Src/main.c **** Led firstRelay = {&firstRelay_Pin,false};
  65:Core/Src/main.c **** Led secondRelay = {&secondRelay_Pin,false};
  66:Core/Src/main.c **** */
  67:Core/Src/main.c **** /* USER CODE END PM */
  68:Core/Src/main.c **** 
  69:Core/Src/main.c **** /* Private variables ---------------------------------------------------------*/
  70:Core/Src/main.c **** ADC_HandleTypeDef hadc1;
  71:Core/Src/main.c **** 
  72:Core/Src/main.c **** IWDG_HandleTypeDef hiwdg;
  73:Core/Src/main.c **** 
  74:Core/Src/main.c **** UART_HandleTypeDef huart1;
  75:Core/Src/main.c **** UART_HandleTypeDef huart2;
  76:Core/Src/main.c **** 
  77:Core/Src/main.c **** /* USER CODE BEGIN PV */
  78:Core/Src/main.c **** ADC_HandleTypeDef hadc1;
  79:Core/Src/main.c **** 
  80:Core/Src/main.c **** //RTC_HandleTypeDef hrtc;
  81:Core/Src/main.c **** 
  82:Core/Src/main.c **** UART_HandleTypeDef huart1;
  83:Core/Src/main.c **** UART_HandleTypeDef huart2;
  84:Core/Src/main.c **** 
  85:Core/Src/main.c **** /* USER CODE BEGIN PV */
  86:Core/Src/main.c **** ModBus_Master_Command master;
  87:Core/Src/main.c **** ModBus_Slave_Command slave;
  88:Core/Src/main.c **** ModBusState state;
  89:Core/Src/main.c **** bool AddressOk = false;
  90:Core/Src/main.c **** uint8_t rx_buff[256];
ARM GAS  C:\Users\user\AppData\Local\Temp\ccPopRei.s 			page 3


  91:Core/Src/main.c **** uint8_t fuck_buff[1024];
  92:Core/Src/main.c **** uint16_t fuckIndex = 0;
  93:Core/Src/main.c **** uint8_t lenght = 0;
  94:Core/Src/main.c **** uint8_t currCommand = 0;
  95:Core/Src/main.c **** bool rx_flag = false;
  96:Core/Src/main.c **** bool tx_flag = false;
  97:Core/Src/main.c **** uint8_t tx_buff[16];
  98:Core/Src/main.c **** uint8_t counter = 0;
  99:Core/Src/main.c ****  uint16_t tickcount1 = 5;
 100:Core/Src/main.c ****  NOS_Short tickcountBuff;
 101:Core/Src/main.c **** NOS_Float uSvValue;
 102:Core/Src/main.c **** uint16_t tickcount2 = 0;
 103:Core/Src/main.c **** uint16_t globalTickCount = 0;
 104:Core/Src/main.c **** bool time250ms = false;
 105:Core/Src/main.c **** NOS_Short time;
 106:Core/Src/main.c **** TStatus_Stat stat;
 107:Core/Src/main.c **** uint16_t voltage;
 108:Core/Src/main.c **** uint8_t detector_Addr = 101;
 109:Core/Src/main.c **** float coef = 0.1E-1f * 1.2f;
 110:Core/Src/main.c **** //float coef = 1.395E-3f;
 111:Core/Src/main.c **** uint16_t temperature = 25;
 112:Core/Src/main.c **** bool tubeIsIn = false;
 113:Core/Src/main.c **** bool rise = true;
 114:Core/Src/main.c **** bool fall = false;
 115:Core/Src/main.c **** URE_GM_Detector detector = {0};
 116:Core/Src/main.c **** 
 117:Core/Src/main.c **** 
 118:Core/Src/main.c **** 
 119:Core/Src/main.c **** OneWire_HandleTypeDef ow;
 120:Core/Src/main.c **** DallasTemperature_HandleTypeDef dt;
 121:Core/Src/main.c **** 
 122:Core/Src/main.c **** int debugCount = 0;
 123:Core/Src/main.c **** 
 124:Core/Src/main.c **** uint16_t show_tickcount1 = 0;
 125:Core/Src/main.c **** uint16_t show_tickcount2 = 0;
 126:Core/Src/main.c **** uint16_t show_globaltickcount = 0;
 127:Core/Src/main.c **** /* USER CODE END PV */
 128:Core/Src/main.c **** 
 129:Core/Src/main.c **** /* Private function prototypes -----------------------------------------------*/
 130:Core/Src/main.c **** void SystemClock_Config(void);
 131:Core/Src/main.c **** static void MX_GPIO_Init(void);
 132:Core/Src/main.c **** static void MX_ADC1_Init(void);
 133:Core/Src/main.c **** static void MX_USART1_UART_Init(void);
 134:Core/Src/main.c **** static void MX_USART2_UART_Init(void);
 135:Core/Src/main.c **** static void MX_IWDG_Init(void);
 136:Core/Src/main.c **** /* USER CODE BEGIN PFP */
 137:Core/Src/main.c **** 
 138:Core/Src/main.c **** /* USER CODE END PFP */
 139:Core/Src/main.c **** 
 140:Core/Src/main.c **** /* Private user code ---------------------------------------------------------*/
 141:Core/Src/main.c **** /* USER CODE BEGIN 0 */
 142:Core/Src/main.c **** void HAL_UART_RxCpltCallback(UART_HandleTypeDef* huart) {
 143:Core/Src/main.c **** 
 144:Core/Src/main.c **** static uint8_t* rx_buff_ptr = rx_buff;
 145:Core/Src/main.c **** 
 146:Core/Src/main.c **** fuck_buff[fuckIndex] = *rx_buff_ptr;
 147:Core/Src/main.c **** fuckIndex++;
ARM GAS  C:\Users\user\AppData\Local\Temp\ccPopRei.s 			page 4


 148:Core/Src/main.c **** if(fuckIndex > 1023)
 149:Core/Src/main.c **** {
 150:Core/Src/main.c ****   fuckIndex = 0;
 151:Core/Src/main.c **** }
 152:Core/Src/main.c **** 
 153:Core/Src/main.c **** if(*rx_buff_ptr == 101 && !AddressOk)
 154:Core/Src/main.c **** {
 155:Core/Src/main.c ****   AddressOk = true;
 156:Core/Src/main.c ****   lenght = 0;
 157:Core/Src/main.c **** }
 158:Core/Src/main.c **** 
 159:Core/Src/main.c **** if(AddressOk && lenght == 1)
 160:Core/Src/main.c **** {
 161:Core/Src/main.c ****   currCommand = *rx_buff_ptr;
 162:Core/Src/main.c **** }
 163:Core/Src/main.c **** 
 164:Core/Src/main.c **** if(lenght > 10)
 165:Core/Src/main.c **** {
 166:Core/Src/main.c ****   rx_buff_ptr = rx_buff;
 167:Core/Src/main.c ****   lenght = 0;
 168:Core/Src/main.c ****   AddressOk = false;
 169:Core/Src/main.c ****   for(int i = 0; i < 10; i++)
 170:Core/Src/main.c ****   {
 171:Core/Src/main.c ****     rx_buff[i] = 0;
 172:Core/Src/main.c ****   }
 173:Core/Src/main.c **** }
 174:Core/Src/main.c **** 
 175:Core/Src/main.c **** if(AddressOk && lenght == 7 && currCommand == 0x03)
 176:Core/Src/main.c **** {
 177:Core/Src/main.c ****   rx_buff_ptr = rx_buff;
 178:Core/Src/main.c ****   AddressOk = false;
 179:Core/Src/main.c ****   lenght = 0;
 180:Core/Src/main.c ****   rx_flag = true;
 181:Core/Src/main.c **** }
 182:Core/Src/main.c **** else
 183:Core/Src/main.c **** {
 184:Core/Src/main.c ****   rx_buff[lenght] = *rx_buff_ptr;
 185:Core/Src/main.c ****   ++rx_buff_ptr;
 186:Core/Src/main.c ****   ++lenght;
 187:Core/Src/main.c **** }
 188:Core/Src/main.c ****     HAL_UART_Receive_IT (&huart1, rx_buff_ptr, 1); 
 189:Core/Src/main.c **** }
 190:Core/Src/main.c **** 
 191:Core/Src/main.c **** void NOS_ModBus_SendSlaveCommand(ModBus_Slave_Command* slave)
 192:Core/Src/main.c **** {
 193:Core/Src/main.c ****   //HAL_GPIO_WritePin(Led_Port,Transmit_LED,1);
 194:Core/Src/main.c ****   if(slave->type < 2)
 195:Core/Src/main.c ****   {
 196:Core/Src/main.c ****     tx_buff[0] = slave->Addr;
 197:Core/Src/main.c ****     tx_buff[1] = slave->Command;
 198:Core/Src/main.c ****     tx_buff[2] = slave->Byte_Count;
 199:Core/Src/main.c ****     NOS_Short crc;
 200:Core/Src/main.c ****     if(slave->type == 0)
 201:Core/Src/main.c ****     {
 202:Core/Src/main.c ****       tx_buff[3] = slave->ShortValue.bytes[0];
 203:Core/Src/main.c ****       tx_buff[4] = slave->ShortValue.bytes[1];
 204:Core/Src/main.c ****       crc.data = GetCRC16(&tx_buff,5);
ARM GAS  C:\Users\user\AppData\Local\Temp\ccPopRei.s 			page 5


 205:Core/Src/main.c ****       tx_buff[5] = crc.bytes[1];
 206:Core/Src/main.c ****       tx_buff[6] = crc.bytes[0];
 207:Core/Src/main.c ****       HAL_UART_Transmit(&huart1,&tx_buff,7,1000);
 208:Core/Src/main.c ****     }
 209:Core/Src/main.c ****     else
 210:Core/Src/main.c ****     {
 211:Core/Src/main.c ****       tx_buff[3] = slave->FloatValue.bytes[3];
 212:Core/Src/main.c ****       tx_buff[4] = slave->FloatValue.bytes[2];
 213:Core/Src/main.c ****       tx_buff[5] = slave->FloatValue.bytes[1];
 214:Core/Src/main.c ****       tx_buff[6] = slave->FloatValue.bytes[0];
 215:Core/Src/main.c ****       crc.data = GetCRC16(&tx_buff,7);
 216:Core/Src/main.c ****       tx_buff[8] = crc.bytes[1];
 217:Core/Src/main.c ****       tx_buff[9] = crc.bytes[0];
 218:Core/Src/main.c ****       HAL_UART_Transmit(&huart1,&tx_buff,9,1000);
 219:Core/Src/main.c ****     }
 220:Core/Src/main.c ****   }
 221:Core/Src/main.c **** }
 222:Core/Src/main.c **** 
 223:Core/Src/main.c **** void GM2_SendDebugData()
 224:Core/Src/main.c **** {
 225:Core/Src/main.c **** 
 226:Core/Src/main.c ****   uint8_t debugBuff[32];
 227:Core/Src/main.c ****  debugBuff[0] = 0x65;
 228:Core/Src/main.c ****  NOS_ModBus_AddUint16ToBuff(&debugBuff,show_tickcount1,1);
 229:Core/Src/main.c ****  NOS_ModBus_AddUint16ToBuff(&debugBuff,show_tickcount2,3);
 230:Core/Src/main.c ****  NOS_ModBus_AddUint16ToBuff(&debugBuff,show_globaltickcount,5);
 231:Core/Src/main.c ****  NOS_ModBus_AddFloatToBuff(&debugBuff,uSvValue.data,7);
 232:Core/Src/main.c ****  NOS_ModBus_AddFloatToBuff(&debugBuff,stat.CPS,11);
 233:Core/Src/main.c ****  NOS_ModBus_AddUint16ToBuff(&debugBuff,stat.Delta,15);
 234:Core/Src/main.c ****  NOS_ModBus_AddUint16ToBuff(&debugBuff,temperature,17);
 235:Core/Src/main.c ****  NOS_ModBus_AddFloatToBuff(&debugBuff,coef,19);
 236:Core/Src/main.c ****  NOS_ModBus_AddUint16ToBuff(&debugBuff,voltage,23);
 237:Core/Src/main.c ****  debugBuff[25] = '\n';
 238:Core/Src/main.c ****  HAL_UART_Transmit(&huart1,debugBuff,26,1000);
 239:Core/Src/main.c **** }
 240:Core/Src/main.c **** 
 241:Core/Src/main.c **** void SysTick_Handler(void)
 242:Core/Src/main.c **** {
 243:Core/Src/main.c ****   /* USER CODE BEGIN SysTick_IRQn 0 */
 244:Core/Src/main.c **** 
 245:Core/Src/main.c ****   /* USER CODE END SysTick_IRQn 0 */
 246:Core/Src/main.c ****   HAL_IncTick();
 247:Core/Src/main.c ****   /* USER CODE BEGIN SysTick_IRQn 1 */
 248:Core/Src/main.c **** time.data++;
 249:Core/Src/main.c **** 
 250:Core/Src/main.c **** if(time.data >= 250) {
 251:Core/Src/main.c ****    globalTickCount = tickcount1 + tickcount2;
 252:Core/Src/main.c ****    show_globaltickcount = globalTickCount;
 253:Core/Src/main.c ****    show_tickcount1 = tickcount1;
 254:Core/Src/main.c ****    show_tickcount2 = tickcount2;
 255:Core/Src/main.c **** 
 256:Core/Src/main.c ****    Stat_AddData250ms(globalTickCount);
 257:Core/Src/main.c ****    if(tubeIsIn)
 258:Core/Src/main.c ****    {
 259:Core/Src/main.c ****       tickcount1 = 0;
 260:Core/Src/main.c ****       tickcount2 = 0;
 261:Core/Src/main.c ****    }      
ARM GAS  C:\Users\user\AppData\Local\Temp\ccPopRei.s 			page 6


 262:Core/Src/main.c ****    time250ms = true;
 263:Core/Src/main.c ****    time.data = 0;  
 264:Core/Src/main.c **** }
 265:Core/Src/main.c ****   /* USER CODE END SysTick_IRQn 1 */
 266:Core/Src/main.c **** }
 267:Core/Src/main.c **** 
 268:Core/Src/main.c **** void EXTI0_IRQHandler(void)
 269:Core/Src/main.c **** {
 270:Core/Src/main.c ****   /* USER CODE BEGIN EXTI0_IRQn 0 */
 271:Core/Src/main.c ****   tickcount1++;
 272:Core/Src/main.c ****   HAL_GPIO_TogglePin(GPIOC,GPIO_PIN_13);
 273:Core/Src/main.c ****   tubeIsIn = true;
 274:Core/Src/main.c ****   /* USER CODE END EXTI0_IRQn 0 */
 275:Core/Src/main.c ****   HAL_GPIO_EXTI_IRQHandler(GPIO_PIN_0);
 276:Core/Src/main.c ****   /* USER CODE BEGIN EXTI0_IRQn 1 */
 277:Core/Src/main.c ****   //tickcount1++;
 278:Core/Src/main.c ****   /* USER CODE END EXTI0_IRQn 1 */
 279:Core/Src/main.c **** }
 280:Core/Src/main.c **** /* USER CODE END 0 */
 281:Core/Src/main.c **** void EXTI1_IRQHandler(void)
 282:Core/Src/main.c **** {
 283:Core/Src/main.c ****   /* USER CODE BEGIN EXTI0_IRQn 0 */
 284:Core/Src/main.c ****   tickcount2++;
 285:Core/Src/main.c ****   HAL_GPIO_TogglePin(GPIOC,GPIO_PIN_13);
 286:Core/Src/main.c ****   tubeIsIn = true;
 287:Core/Src/main.c ****   /* USER CODE END EXTI0_IRQn 0 */
 288:Core/Src/main.c ****   HAL_GPIO_EXTI_IRQHandler(GPIO_PIN_1);
 289:Core/Src/main.c ****   /* USER CODE BEGIN EXTI0_IRQn 1 */
 290:Core/Src/main.c ****   //tickcount1++;
 291:Core/Src/main.c ****   /* USER CODE END EXTI0_IRQn 1 */
 292:Core/Src/main.c **** }
 293:Core/Src/main.c **** /* USER CODE END 0 */
 294:Core/Src/main.c **** 
 295:Core/Src/main.c **** void DS18B20_LibInit(void)
 296:Core/Src/main.c **** {
 297:Core/Src/main.c ****   OW_Begin(&ow, &huart2);
 298:Core/Src/main.c **** 
 299:Core/Src/main.c ****   if(OW_Reset(&ow) == OW_OK)
 300:Core/Src/main.c ****   {
 301:Core/Src/main.c **** 	  //printf("[%8lu] OneWire devices are present :)\r\n", HAL_GetTick());
 302:Core/Src/main.c ****   }
 303:Core/Src/main.c ****   else
 304:Core/Src/main.c ****   {
 305:Core/Src/main.c **** 	  //printf("[%8lu] OneWire no devices :(\r\n", HAL_GetTick());
 306:Core/Src/main.c ****   }
 307:Core/Src/main.c **** 
 308:Core/Src/main.c ****   DT_SetOneWire(&dt, &ow);
 309:Core/Src/main.c **** 
 310:Core/Src/main.c ****   // arrays to hold device address
 311:Core/Src/main.c ****   CurrentDeviceAddress insideThermometer;
 312:Core/Src/main.c **** 
 313:Core/Src/main.c ****   // locate devices on the bus
 314:Core/Src/main.c ****   DT_Begin(&dt);
 315:Core/Src/main.c **** 
 316:Core/Src/main.c ****   // set the resolution to 12 bit (Each Dallas/Maxim device is capable of several different resolut
 317:Core/Src/main.c ****   DT_SetResolution(&dt, insideThermometer, 12, true);
 318:Core/Src/main.c **** }
ARM GAS  C:\Users\user\AppData\Local\Temp\ccPopRei.s 			page 7


 319:Core/Src/main.c **** /**
 320:Core/Src/main.c ****   * @brief  The application entry point.
 321:Core/Src/main.c ****   * @retval int
 322:Core/Src/main.c ****   */
 323:Core/Src/main.c **** int main(void)
 324:Core/Src/main.c **** {
 325:Core/Src/main.c ****   /* USER CODE BEGIN 1 */
 326:Core/Src/main.c **** 
 327:Core/Src/main.c ****   /* USER CODE END 1 */
 328:Core/Src/main.c **** 
 329:Core/Src/main.c ****   /* MCU Configuration--------------------------------------------------------*/
 330:Core/Src/main.c **** 
 331:Core/Src/main.c ****   /* Reset of all peripherals, Initializes the Flash interface and the Systick. */
 332:Core/Src/main.c ****   HAL_Init();
 333:Core/Src/main.c **** 
 334:Core/Src/main.c ****   /* USER CODE BEGIN Init */
 335:Core/Src/main.c **** 
 336:Core/Src/main.c ****   /* USER CODE END Init */
 337:Core/Src/main.c **** 
 338:Core/Src/main.c ****   /* Configure the system clock */
 339:Core/Src/main.c ****   SystemClock_Config();
 340:Core/Src/main.c **** 
 341:Core/Src/main.c ****   /* USER CODE BEGIN SysInit */
 342:Core/Src/main.c **** 
 343:Core/Src/main.c ****   /* USER CODE END SysInit */
 344:Core/Src/main.c **** 
 345:Core/Src/main.c ****   /* Initialize all configured peripherals */
 346:Core/Src/main.c ****   MX_GPIO_Init();
 347:Core/Src/main.c ****   MX_ADC1_Init();
 348:Core/Src/main.c ****   MX_USART1_UART_Init();
 349:Core/Src/main.c ****   //MX_USART2_UART_Init();
 350:Core/Src/main.c ****   //MX_IWDG_Init();
 351:Core/Src/main.c ****   /* USER CODE BEGIN 2 */
 352:Core/Src/main.c **** 
 353:Core/Src/main.c **** 
 354:Core/Src/main.c ****   Stat_Init(3.7,60,0);
 355:Core/Src/main.c ****   Detector_Init_Param(coef, 0);
 356:Core/Src/main.c ****   HAL_UART_Receive_IT(&huart1,rx_buff,1);
 357:Core/Src/main.c ****   HAL_ADC_Start(&hadc1);
 358:Core/Src/main.c ****   //DS18B20_LibInit();
 359:Core/Src/main.c ****   //Detector_Init(&detector,0.25f,1.25f,(Pin){GPIOB,GPIO_PIN_12},(Pin){GPIOB,GPIO_PIN_13},(Pin){GPI
 360:Core/Src/main.c ****   /* USER CODE END 2 */
 361:Core/Src/main.c **** 
 362:Core/Src/main.c ****   /* Infinite loop */
 363:Core/Src/main.c ****   /* USER CODE BEGIN WHILE */
 364:Core/Src/main.c ****   while (1)
 365:Core/Src/main.c ****   {
 366:Core/Src/main.c ****     if(time250ms)
 367:Core/Src/main.c ****     {
 368:Core/Src/main.c ****       debugCount++;
 369:Core/Src/main.c ****       if(debugCount > 1000)
 370:Core/Src/main.c ****       {
 371:Core/Src/main.c ****         debugCount = 0;
 372:Core/Src/main.c ****       }
 373:Core/Src/main.c ****        Stat_GetStatus(&stat);
 374:Core/Src/main.c ****        uSvValue.data = Detector_GetuZvValue(&stat);
 375:Core/Src/main.c ****        HAL_ADC_PollForConversion(&hadc1, 10);
ARM GAS  C:\Users\user\AppData\Local\Temp\ccPopRei.s 			page 8


 376:Core/Src/main.c ****        voltage = (uint16_t)((float)HAL_ADC_GetValue(&hadc1)/3.1f);
 377:Core/Src/main.c ****        
 378:Core/Src/main.c ****     }
 379:Core/Src/main.c **** 
 380:Core/Src/main.c **** 
 381:Core/Src/main.c **** 
 382:Core/Src/main.c ****     if(rx_flag)
 383:Core/Src/main.c ****     {
 384:Core/Src/main.c ****       bool trueCommand = false;
 385:Core/Src/main.c ****       HAL_GPIO_WritePin(GPIOB,LED_RX_Pin,1);
 386:Core/Src/main.c ****       bool DebugData = false;
 387:Core/Src/main.c ****       NOS_ModBus_ParseMasterCommand(&master,&rx_buff,0);
 388:Core/Src/main.c ****       switch(master.Command)
 389:Core/Src/main.c ****       {
 390:Core/Src/main.c ****         case 0x03:
 391:Core/Src/main.c ****         slave.Addr = detector_Addr;
 392:Core/Src/main.c ****         slave.Command = 0x03;
 393:Core/Src/main.c **** 
 394:Core/Src/main.c ****         switch(master.Reg_Addr)
 395:Core/Src/main.c ****         {
 396:Core/Src/main.c ****           case 0x0000:
 397:Core/Src/main.c ****           slave.ShortValue.data = 1000;
 398:Core/Src/main.c ****           slave.Byte_Count = 2;
 399:Core/Src/main.c ****           slave.type = 0;
 400:Core/Src/main.c ****           trueCommand = true;
 401:Core/Src/main.c ****           break;
 402:Core/Src/main.c **** 
 403:Core/Src/main.c ****           case 0x0001:
 404:Core/Src/main.c ****           slave.ShortValue.data = 25;
 405:Core/Src/main.c ****           slave.Byte_Count = 2;
 406:Core/Src/main.c ****           slave.type = 0;
 407:Core/Src/main.c ****           trueCommand = true;
 408:Core/Src/main.c ****           break;
 409:Core/Src/main.c **** 
 410:Core/Src/main.c ****           case 0x0002:
 411:Core/Src/main.c ****           slave.FloatValue.data = uSvValue.data;
 412:Core/Src/main.c ****           slave.Byte_Count = 4;
 413:Core/Src/main.c ****           slave.type = 1;
 414:Core/Src/main.c ****           trueCommand = true;
 415:Core/Src/main.c ****           break;
 416:Core/Src/main.c **** 
 417:Core/Src/main.c ****           case 0x0004:
 418:Core/Src/main.c ****           slave.ShortValue.data = voltage;
 419:Core/Src/main.c ****           slave.Byte_Count = 2;
 420:Core/Src/main.c ****           slave.type = 0;
 421:Core/Src/main.c ****           trueCommand = true;
 422:Core/Src/main.c ****           break;
 423:Core/Src/main.c ****          
 424:Core/Src/main.c ****           case 0x0005:
 425:Core/Src/main.c ****           slave.FloatValue.data = 0.25f;
 426:Core/Src/main.c ****           slave.Byte_Count = 4;
 427:Core/Src/main.c ****           slave.type = 1;
 428:Core/Src/main.c ****           trueCommand = true;
 429:Core/Src/main.c ****           break;
 430:Core/Src/main.c **** 
 431:Core/Src/main.c ****           case 0x0007:
 432:Core/Src/main.c ****           slave.FloatValue.data = 1.25f;
ARM GAS  C:\Users\user\AppData\Local\Temp\ccPopRei.s 			page 9


 433:Core/Src/main.c ****           slave.Byte_Count = 4;
 434:Core/Src/main.c ****           slave.type = 1;
 435:Core/Src/main.c ****           trueCommand = true;
 436:Core/Src/main.c ****           break;
 437:Core/Src/main.c **** 
 438:Core/Src/main.c ****           case 0x0068:
 439:Core/Src/main.c ****           if(!tubeIsIn)
 440:Core/Src/main.c ****           {
 441:Core/Src/main.c ****               if(tickcount1 > 10)
 442:Core/Src/main.c ****               {
 443:Core/Src/main.c ****                 rise = false;
 444:Core/Src/main.c ****                 fall = true;
 445:Core/Src/main.c ****               }
 446:Core/Src/main.c **** 
 447:Core/Src/main.c ****               if(tickcount1 < 5)
 448:Core/Src/main.c ****               {
 449:Core/Src/main.c ****                 rise = true;
 450:Core/Src/main.c ****                 fall = false;
 451:Core/Src/main.c ****               }
 452:Core/Src/main.c **** 
 453:Core/Src/main.c ****               if(rise)
 454:Core/Src/main.c ****               {
 455:Core/Src/main.c ****                 tickcount1++;
 456:Core/Src/main.c ****               }
 457:Core/Src/main.c ****               else
 458:Core/Src/main.c ****               {
 459:Core/Src/main.c ****                 tickcount1--;
 460:Core/Src/main.c ****               }
 461:Core/Src/main.c ****           }
 462:Core/Src/main.c **** 
 463:Core/Src/main.c ****           slave.ShortValue.data = tickcount1;
 464:Core/Src/main.c ****           slave.Byte_Count = 2;
 465:Core/Src/main.c ****           slave.type = 0;
 466:Core/Src/main.c ****           trueCommand = true;
 467:Core/Src/main.c ****           break;
 468:Core/Src/main.c **** 
 469:Core/Src/main.c ****           case 0x006F:
 470:Core/Src/main.c ****           slave.ShortValue.data = 0;
 471:Core/Src/main.c ****           slave.Byte_Count = 2;
 472:Core/Src/main.c ****           slave.type = 0;
 473:Core/Src/main.c ****           trueCommand = true;
 474:Core/Src/main.c ****           break;
 475:Core/Src/main.c **** 
 476:Core/Src/main.c ****           case 0xFF00:
 477:Core/Src/main.c ****           DebugData = true;
 478:Core/Src/main.c ****           trueCommand = true;
 479:Core/Src/main.c ****           break;
 480:Core/Src/main.c **** 
 481:Core/Src/main.c ****           default:
 482:Core/Src/main.c ****           trueCommand = false;
 483:Core/Src/main.c ****           break;
 484:Core/Src/main.c ****         }
 485:Core/Src/main.c ****         break;
 486:Core/Src/main.c **** 
 487:Core/Src/main.c ****       }
 488:Core/Src/main.c ****       HAL_GPIO_WritePin(GPIOB,LED_RX_Pin,0);
 489:Core/Src/main.c **** 
ARM GAS  C:\Users\user\AppData\Local\Temp\ccPopRei.s 			page 10


 490:Core/Src/main.c ****       if(!DebugData && trueCommand)
 491:Core/Src/main.c ****       {
 492:Core/Src/main.c ****             HAL_GPIO_WritePin(GPIOB,LED_TX_Pin,1);
 493:Core/Src/main.c ****             HAL_GPIO_WritePin(GPIOA,GPIO_PIN_8,1);
 494:Core/Src/main.c ****             NOS_ModBus_SendSlaveCommand(&slave);
 495:Core/Src/main.c ****             HAL_GPIO_WritePin(GPIOA,GPIO_PIN_8,0);
 496:Core/Src/main.c ****             HAL_GPIO_WritePin(GPIOB,LED_TX_Pin,0);
 497:Core/Src/main.c ****       }
 498:Core/Src/main.c ****       
 499:Core/Src/main.c ****       if(DebugData && trueCommand)
 500:Core/Src/main.c ****       {
 501:Core/Src/main.c ****             HAL_GPIO_WritePin(GPIOB,LED_TX_Pin,1);
 502:Core/Src/main.c ****             HAL_GPIO_WritePin(GPIOA,GPIO_PIN_8,1);
 503:Core/Src/main.c ****             GM2_SendDebugData();
 504:Core/Src/main.c ****             HAL_GPIO_WritePin(GPIOA,GPIO_PIN_8,0);
 505:Core/Src/main.c ****             HAL_GPIO_WritePin(GPIOB,LED_TX_Pin,0);
 506:Core/Src/main.c ****             DebugData = false;
 507:Core/Src/main.c ****       }  
 508:Core/Src/main.c **** 
 509:Core/Src/main.c ****       rx_flag = false;
 510:Core/Src/main.c ****     }
 511:Core/Src/main.c ****     /* USER CODE END WHILE */
 512:Core/Src/main.c **** 
 513:Core/Src/main.c ****     /* USER CODE BEGIN 3 */
 514:Core/Src/main.c ****   }
 515:Core/Src/main.c ****   /* USER CODE END 3 */
 516:Core/Src/main.c **** }
 517:Core/Src/main.c **** 
 518:Core/Src/main.c **** /**
 519:Core/Src/main.c ****   * @brief System Clock Configuration
 520:Core/Src/main.c ****   * @retval None
 521:Core/Src/main.c ****   */
 522:Core/Src/main.c **** void SystemClock_Config(void)
 523:Core/Src/main.c **** {
 524:Core/Src/main.c ****   RCC_OscInitTypeDef RCC_OscInitStruct = {0};
 525:Core/Src/main.c ****   RCC_ClkInitTypeDef RCC_ClkInitStruct = {0};
 526:Core/Src/main.c ****   RCC_PeriphCLKInitTypeDef PeriphClkInit = {0};
 527:Core/Src/main.c **** 
 528:Core/Src/main.c ****   /** Initializes the RCC Oscillators according to the specified parameters
 529:Core/Src/main.c ****   * in the RCC_OscInitTypeDef structure.
 530:Core/Src/main.c ****   */
 531:Core/Src/main.c ****   RCC_OscInitStruct.OscillatorType = RCC_OSCILLATORTYPE_HSI|RCC_OSCILLATORTYPE_LSI;
 532:Core/Src/main.c ****   RCC_OscInitStruct.HSIState = RCC_HSI_ON;
 533:Core/Src/main.c ****   RCC_OscInitStruct.HSICalibrationValue = RCC_HSICALIBRATION_DEFAULT;
 534:Core/Src/main.c ****   RCC_OscInitStruct.LSIState = RCC_LSI_ON;
 535:Core/Src/main.c ****   RCC_OscInitStruct.PLL.PLLState = RCC_PLL_ON;
 536:Core/Src/main.c ****   RCC_OscInitStruct.PLL.PLLSource = RCC_PLLSOURCE_HSI_DIV2;
 537:Core/Src/main.c ****   RCC_OscInitStruct.PLL.PLLMUL = RCC_PLL_MUL16;
 538:Core/Src/main.c ****   if (HAL_RCC_OscConfig(&RCC_OscInitStruct) != HAL_OK)
 539:Core/Src/main.c ****   {
 540:Core/Src/main.c ****     Error_Handler();
 541:Core/Src/main.c ****   }
 542:Core/Src/main.c ****   /** Initializes the CPU, AHB and APB buses clocks
 543:Core/Src/main.c ****   */
 544:Core/Src/main.c ****   RCC_ClkInitStruct.ClockType = RCC_CLOCKTYPE_HCLK|RCC_CLOCKTYPE_SYSCLK
 545:Core/Src/main.c ****                               |RCC_CLOCKTYPE_PCLK1|RCC_CLOCKTYPE_PCLK2;
 546:Core/Src/main.c ****   RCC_ClkInitStruct.SYSCLKSource = RCC_SYSCLKSOURCE_PLLCLK;
ARM GAS  C:\Users\user\AppData\Local\Temp\ccPopRei.s 			page 11


 547:Core/Src/main.c ****   RCC_ClkInitStruct.AHBCLKDivider = RCC_SYSCLK_DIV1;
 548:Core/Src/main.c ****   RCC_ClkInitStruct.APB1CLKDivider = RCC_HCLK_DIV2;
 549:Core/Src/main.c ****   RCC_ClkInitStruct.APB2CLKDivider = RCC_HCLK_DIV1;
 550:Core/Src/main.c **** 
 551:Core/Src/main.c ****   if (HAL_RCC_ClockConfig(&RCC_ClkInitStruct, FLASH_LATENCY_2) != HAL_OK)
 552:Core/Src/main.c ****   {
 553:Core/Src/main.c ****     Error_Handler();
 554:Core/Src/main.c ****   }
 555:Core/Src/main.c ****   PeriphClkInit.PeriphClockSelection = RCC_PERIPHCLK_ADC;
 556:Core/Src/main.c ****   PeriphClkInit.AdcClockSelection = RCC_ADCPCLK2_DIV6;
 557:Core/Src/main.c ****   if (HAL_RCCEx_PeriphCLKConfig(&PeriphClkInit) != HAL_OK)
 558:Core/Src/main.c ****   {
 559:Core/Src/main.c ****     Error_Handler();
 560:Core/Src/main.c ****   }
 561:Core/Src/main.c **** }
 562:Core/Src/main.c **** 
 563:Core/Src/main.c **** /**
 564:Core/Src/main.c ****   * @brief ADC1 Initialization Function
 565:Core/Src/main.c ****   * @param None
 566:Core/Src/main.c ****   * @retval None
 567:Core/Src/main.c ****   */
 568:Core/Src/main.c **** static void MX_ADC1_Init(void)
 569:Core/Src/main.c **** {
 570:Core/Src/main.c **** 
 571:Core/Src/main.c ****   /* USER CODE BEGIN ADC1_Init 0 */
 572:Core/Src/main.c **** 
 573:Core/Src/main.c ****   /* USER CODE END ADC1_Init 0 */
 574:Core/Src/main.c **** 
 575:Core/Src/main.c ****   ADC_ChannelConfTypeDef sConfig = {0};
 576:Core/Src/main.c **** 
 577:Core/Src/main.c ****   /* USER CODE BEGIN ADC1_Init 1 */
 578:Core/Src/main.c **** 
 579:Core/Src/main.c ****   /* USER CODE END ADC1_Init 1 */
 580:Core/Src/main.c ****   /** Common config
 581:Core/Src/main.c ****   */
 582:Core/Src/main.c ****   hadc1.Instance = ADC1;
 583:Core/Src/main.c ****   hadc1.Init.ScanConvMode = ADC_SCAN_DISABLE;
 584:Core/Src/main.c ****   hadc1.Init.ContinuousConvMode = DISABLE;
 585:Core/Src/main.c ****   hadc1.Init.DiscontinuousConvMode = DISABLE;
 586:Core/Src/main.c ****   hadc1.Init.ExternalTrigConv = ADC_SOFTWARE_START;
 587:Core/Src/main.c ****   hadc1.Init.DataAlign = ADC_DATAALIGN_RIGHT;
 588:Core/Src/main.c ****   hadc1.Init.NbrOfConversion = 1;
 589:Core/Src/main.c ****   if (HAL_ADC_Init(&hadc1) != HAL_OK)
 590:Core/Src/main.c ****   {
 591:Core/Src/main.c ****     Error_Handler();
 592:Core/Src/main.c ****   }
 593:Core/Src/main.c ****   /** Configure Regular Channel
 594:Core/Src/main.c ****   */
 595:Core/Src/main.c ****   sConfig.Channel = ADC_CHANNEL_7;
 596:Core/Src/main.c ****   sConfig.Rank = ADC_REGULAR_RANK_1;
 597:Core/Src/main.c ****   sConfig.SamplingTime = ADC_SAMPLETIME_1CYCLE_5;
 598:Core/Src/main.c ****   if (HAL_ADC_ConfigChannel(&hadc1, &sConfig) != HAL_OK)
 599:Core/Src/main.c ****   {
 600:Core/Src/main.c ****     Error_Handler();
 601:Core/Src/main.c ****   }
 602:Core/Src/main.c ****   /* USER CODE BEGIN ADC1_Init 2 */
 603:Core/Src/main.c **** 
ARM GAS  C:\Users\user\AppData\Local\Temp\ccPopRei.s 			page 12


 604:Core/Src/main.c ****   /* USER CODE END ADC1_Init 2 */
 605:Core/Src/main.c **** 
 606:Core/Src/main.c **** }
 607:Core/Src/main.c **** 
 608:Core/Src/main.c **** /**
 609:Core/Src/main.c ****   * @brief IWDG Initialization Function
 610:Core/Src/main.c ****   * @param None
 611:Core/Src/main.c ****   * @retval None
 612:Core/Src/main.c ****   */
 613:Core/Src/main.c **** static void MX_IWDG_Init(void)
 614:Core/Src/main.c **** {
 615:Core/Src/main.c **** 
 616:Core/Src/main.c ****   /* USER CODE BEGIN IWDG_Init 0 */
 617:Core/Src/main.c **** 
 618:Core/Src/main.c ****   /* USER CODE END IWDG_Init 0 */
 619:Core/Src/main.c **** 
 620:Core/Src/main.c ****   /* USER CODE BEGIN IWDG_Init 1 */
 621:Core/Src/main.c **** 
 622:Core/Src/main.c ****   /* USER CODE END IWDG_Init 1 */
 623:Core/Src/main.c ****   hiwdg.Instance = IWDG;
 624:Core/Src/main.c ****   hiwdg.Init.Prescaler = IWDG_PRESCALER_4;
 625:Core/Src/main.c ****   hiwdg.Init.Reload = 4095;
 626:Core/Src/main.c ****   if (HAL_IWDG_Init(&hiwdg) != HAL_OK)
 627:Core/Src/main.c ****   {
 628:Core/Src/main.c ****     Error_Handler();
 629:Core/Src/main.c ****   }
 630:Core/Src/main.c ****   /* USER CODE BEGIN IWDG_Init 2 */
 631:Core/Src/main.c **** 
 632:Core/Src/main.c ****   /* USER CODE END IWDG_Init 2 */
 633:Core/Src/main.c **** 
 634:Core/Src/main.c **** }
 635:Core/Src/main.c **** 
 636:Core/Src/main.c **** /**
 637:Core/Src/main.c ****   * @brief USART1 Initialization Function
 638:Core/Src/main.c ****   * @param None
 639:Core/Src/main.c ****   * @retval None
 640:Core/Src/main.c ****   */
 641:Core/Src/main.c **** static void MX_USART1_UART_Init(void)
 642:Core/Src/main.c **** {
 643:Core/Src/main.c **** 
 644:Core/Src/main.c ****   /* USER CODE BEGIN USART1_Init 0 */
 645:Core/Src/main.c **** 
 646:Core/Src/main.c ****   /* USER CODE END USART1_Init 0 */
 647:Core/Src/main.c **** 
 648:Core/Src/main.c ****   /* USER CODE BEGIN USART1_Init 1 */
 649:Core/Src/main.c **** 
 650:Core/Src/main.c ****   /* USER CODE END USART1_Init 1 */
 651:Core/Src/main.c ****   huart1.Instance = USART1;
 652:Core/Src/main.c ****   huart1.Init.BaudRate = 57600;
 653:Core/Src/main.c ****   huart1.Init.WordLength = UART_WORDLENGTH_8B;
 654:Core/Src/main.c ****   huart1.Init.StopBits = UART_STOPBITS_2;
 655:Core/Src/main.c ****   huart1.Init.Parity = UART_PARITY_NONE;
 656:Core/Src/main.c ****   huart1.Init.Mode = UART_MODE_TX_RX;
 657:Core/Src/main.c ****   huart1.Init.HwFlowCtl = UART_HWCONTROL_NONE;
 658:Core/Src/main.c ****   huart1.Init.OverSampling = UART_OVERSAMPLING_16;
 659:Core/Src/main.c ****   if (HAL_UART_Init(&huart1) != HAL_OK)
 660:Core/Src/main.c ****   {
ARM GAS  C:\Users\user\AppData\Local\Temp\ccPopRei.s 			page 13


 661:Core/Src/main.c ****     Error_Handler();
 662:Core/Src/main.c ****   }
 663:Core/Src/main.c ****   /* USER CODE BEGIN USART1_Init 2 */
 664:Core/Src/main.c **** 
 665:Core/Src/main.c ****   /* USER CODE END USART1_Init 2 */
 666:Core/Src/main.c **** 
 667:Core/Src/main.c **** }
 668:Core/Src/main.c **** 
 669:Core/Src/main.c **** /**
 670:Core/Src/main.c ****   * @brief USART2 Initialization Function
 671:Core/Src/main.c ****   * @param None
 672:Core/Src/main.c ****   * @retval None
 673:Core/Src/main.c ****   */
 674:Core/Src/main.c **** static void MX_USART2_UART_Init(void)
 675:Core/Src/main.c **** {
 676:Core/Src/main.c **** 
 677:Core/Src/main.c ****   /* USER CODE BEGIN USART2_Init 0 */
 678:Core/Src/main.c **** 
 679:Core/Src/main.c ****   /* USER CODE END USART2_Init 0 */
 680:Core/Src/main.c **** 
 681:Core/Src/main.c ****   /* USER CODE BEGIN USART2_Init 1 */
 682:Core/Src/main.c **** 
 683:Core/Src/main.c ****   /* USER CODE END USART2_Init 1 */
 684:Core/Src/main.c ****   huart2.Instance = USART2;
 685:Core/Src/main.c ****   huart2.Init.BaudRate = 115200;
 686:Core/Src/main.c ****   huart2.Init.WordLength = UART_WORDLENGTH_8B;
 687:Core/Src/main.c ****   huart2.Init.StopBits = UART_STOPBITS_1;
 688:Core/Src/main.c ****   huart2.Init.Parity = UART_PARITY_NONE;
 689:Core/Src/main.c ****   huart2.Init.Mode = UART_MODE_TX_RX;
 690:Core/Src/main.c ****   huart2.Init.HwFlowCtl = UART_HWCONTROL_NONE;
 691:Core/Src/main.c ****   huart2.Init.OverSampling = UART_OVERSAMPLING_16;
 692:Core/Src/main.c ****   if (HAL_HalfDuplex_Init(&huart2) != HAL_OK)
 693:Core/Src/main.c ****   {
 694:Core/Src/main.c ****     Error_Handler();
 695:Core/Src/main.c ****   }
 696:Core/Src/main.c ****   /* USER CODE BEGIN USART2_Init 2 */
 697:Core/Src/main.c **** 
 698:Core/Src/main.c ****   /* USER CODE END USART2_Init 2 */
 699:Core/Src/main.c **** 
 700:Core/Src/main.c **** }
 701:Core/Src/main.c **** 
 702:Core/Src/main.c **** /**
 703:Core/Src/main.c ****   * @brief GPIO Initialization Function
 704:Core/Src/main.c ****   * @param None
 705:Core/Src/main.c ****   * @retval None
 706:Core/Src/main.c ****   */
 707:Core/Src/main.c **** static void MX_GPIO_Init(void)
 708:Core/Src/main.c **** {
  26              		.loc 1 708 1 view -0
  27              		.cfi_startproc
  28              		@ args = 0, pretend = 0, frame = 32
  29              		@ frame_needed = 0, uses_anonymous_args = 0
  30 0000 2DE9F043 		push	{r4, r5, r6, r7, r8, r9, lr}
  31              		.cfi_def_cfa_offset 28
  32              		.cfi_offset 4, -28
  33              		.cfi_offset 5, -24
  34              		.cfi_offset 6, -20
ARM GAS  C:\Users\user\AppData\Local\Temp\ccPopRei.s 			page 14


  35              		.cfi_offset 7, -16
  36              		.cfi_offset 8, -12
  37              		.cfi_offset 9, -8
  38              		.cfi_offset 14, -4
  39 0004 89B0     		sub	sp, sp, #36
  40              		.cfi_def_cfa_offset 64
 709:Core/Src/main.c ****   GPIO_InitTypeDef GPIO_InitStruct = {0};
  41              		.loc 1 709 3 view .LVU1
  42              		.loc 1 709 20 is_stmt 0 view .LVU2
  43 0006 0024     		movs	r4, #0
  44 0008 0494     		str	r4, [sp, #16]
  45 000a 0594     		str	r4, [sp, #20]
  46 000c 0694     		str	r4, [sp, #24]
  47 000e 0794     		str	r4, [sp, #28]
 710:Core/Src/main.c **** 
 711:Core/Src/main.c ****   /* GPIO Ports Clock Enable */
 712:Core/Src/main.c ****   __HAL_RCC_GPIOC_CLK_ENABLE();
  48              		.loc 1 712 3 is_stmt 1 view .LVU3
  49              	.LBB4:
  50              		.loc 1 712 3 view .LVU4
  51              		.loc 1 712 3 view .LVU5
  52 0010 3E4B     		ldr	r3, .L3
  53 0012 9A69     		ldr	r2, [r3, #24]
  54 0014 42F01002 		orr	r2, r2, #16
  55 0018 9A61     		str	r2, [r3, #24]
  56              		.loc 1 712 3 view .LVU6
  57 001a 9A69     		ldr	r2, [r3, #24]
  58 001c 02F01002 		and	r2, r2, #16
  59 0020 0092     		str	r2, [sp]
  60              		.loc 1 712 3 view .LVU7
  61 0022 009A     		ldr	r2, [sp]
  62              	.LBE4:
  63              		.loc 1 712 3 view .LVU8
 713:Core/Src/main.c ****   __HAL_RCC_GPIOD_CLK_ENABLE();
  64              		.loc 1 713 3 view .LVU9
  65              	.LBB5:
  66              		.loc 1 713 3 view .LVU10
  67              		.loc 1 713 3 view .LVU11
  68 0024 9A69     		ldr	r2, [r3, #24]
  69 0026 42F02002 		orr	r2, r2, #32
  70 002a 9A61     		str	r2, [r3, #24]
  71              		.loc 1 713 3 view .LVU12
  72 002c 9A69     		ldr	r2, [r3, #24]
  73 002e 02F02002 		and	r2, r2, #32
  74 0032 0192     		str	r2, [sp, #4]
  75              		.loc 1 713 3 view .LVU13
  76 0034 019A     		ldr	r2, [sp, #4]
  77              	.LBE5:
  78              		.loc 1 713 3 view .LVU14
 714:Core/Src/main.c ****   __HAL_RCC_GPIOA_CLK_ENABLE();
  79              		.loc 1 714 3 view .LVU15
  80              	.LBB6:
  81              		.loc 1 714 3 view .LVU16
  82              		.loc 1 714 3 view .LVU17
  83 0036 9A69     		ldr	r2, [r3, #24]
  84 0038 42F00402 		orr	r2, r2, #4
  85 003c 9A61     		str	r2, [r3, #24]
ARM GAS  C:\Users\user\AppData\Local\Temp\ccPopRei.s 			page 15


  86              		.loc 1 714 3 view .LVU18
  87 003e 9A69     		ldr	r2, [r3, #24]
  88 0040 02F00402 		and	r2, r2, #4
  89 0044 0292     		str	r2, [sp, #8]
  90              		.loc 1 714 3 view .LVU19
  91 0046 029A     		ldr	r2, [sp, #8]
  92              	.LBE6:
  93              		.loc 1 714 3 view .LVU20
 715:Core/Src/main.c ****   __HAL_RCC_GPIOB_CLK_ENABLE();
  94              		.loc 1 715 3 view .LVU21
  95              	.LBB7:
  96              		.loc 1 715 3 view .LVU22
  97              		.loc 1 715 3 view .LVU23
  98 0048 9A69     		ldr	r2, [r3, #24]
  99 004a 42F00802 		orr	r2, r2, #8
 100 004e 9A61     		str	r2, [r3, #24]
 101              		.loc 1 715 3 view .LVU24
 102 0050 9B69     		ldr	r3, [r3, #24]
 103 0052 03F00803 		and	r3, r3, #8
 104 0056 0393     		str	r3, [sp, #12]
 105              		.loc 1 715 3 view .LVU25
 106 0058 039B     		ldr	r3, [sp, #12]
 107              	.LBE7:
 108              		.loc 1 715 3 view .LVU26
 716:Core/Src/main.c **** 
 717:Core/Src/main.c ****   /*Configure GPIO pin Output Level */
 718:Core/Src/main.c ****   HAL_GPIO_WritePin(Control_LED_GPIO_Port, Control_LED_Pin, GPIO_PIN_RESET);
 109              		.loc 1 718 3 view .LVU27
 110 005a DFF8B480 		ldr	r8, .L3+4
 111 005e 2246     		mov	r2, r4
 112 0060 4FF40051 		mov	r1, #8192
 113 0064 4046     		mov	r0, r8
 114 0066 FFF7FEFF 		bl	HAL_GPIO_WritePin
 115              	.LVL0:
 719:Core/Src/main.c **** 
 720:Core/Src/main.c ****   /*Configure GPIO pin Output Level */
 721:Core/Src/main.c ****   HAL_GPIO_WritePin(GPIOB, Relay_Norm_Pin|Relay_fDanger_Pin|Realy_sDanger_Pin|LED_Tick_Pin
 116              		.loc 1 721 3 view .LVU28
 117 006a 2A4F     		ldr	r7, .L3+8
 118 006c 2246     		mov	r2, r4
 119 006e 47F27801 		movw	r1, #28792
 120 0072 3846     		mov	r0, r7
 121 0074 FFF7FEFF 		bl	HAL_GPIO_WritePin
 122              	.LVL1:
 722:Core/Src/main.c ****                           |LED_OK_Pin|LED_RX_Pin|LED_TX_Pin, GPIO_PIN_RESET);
 723:Core/Src/main.c **** 
 724:Core/Src/main.c ****   /*Configure GPIO pin Output Level */
 725:Core/Src/main.c ****   HAL_GPIO_WritePin(GPIOA, RS_CTR_Pin|Boot_Pin|GPIO_PIN_8, GPIO_PIN_RESET);
 123              		.loc 1 725 3 view .LVU29
 124 0078 DFF89C90 		ldr	r9, .L3+12
 125 007c 2246     		mov	r2, r4
 126 007e 4FF41061 		mov	r1, #2304
 127 0082 4846     		mov	r0, r9
 128 0084 FFF7FEFF 		bl	HAL_GPIO_WritePin
 129              	.LVL2:
 726:Core/Src/main.c ****   HAL_GPIO_WritePin(GPIOC, GPIO_PIN_13, GPIO_PIN_RESET);
 130              		.loc 1 726 3 view .LVU30
ARM GAS  C:\Users\user\AppData\Local\Temp\ccPopRei.s 			page 16


 131 0088 2246     		mov	r2, r4
 132 008a 4FF40051 		mov	r1, #8192
 133 008e 4046     		mov	r0, r8
 134 0090 FFF7FEFF 		bl	HAL_GPIO_WritePin
 135              	.LVL3:
 727:Core/Src/main.c ****   /*Configure GPIO pin : Control_LED_Pin */
 728:Core/Src/main.c ****   GPIO_InitStruct.Pin = Control_LED_Pin;
 136              		.loc 1 728 3 view .LVU31
 137              		.loc 1 728 23 is_stmt 0 view .LVU32
 138 0094 4FF40053 		mov	r3, #8192
 139 0098 0493     		str	r3, [sp, #16]
 729:Core/Src/main.c ****   GPIO_InitStruct.Mode = GPIO_MODE_OUTPUT_PP;
 140              		.loc 1 729 3 is_stmt 1 view .LVU33
 141              		.loc 1 729 24 is_stmt 0 view .LVU34
 142 009a 0126     		movs	r6, #1
 143 009c 0596     		str	r6, [sp, #20]
 730:Core/Src/main.c ****   GPIO_InitStruct.Pull = GPIO_NOPULL;
 144              		.loc 1 730 3 is_stmt 1 view .LVU35
 145              		.loc 1 730 24 is_stmt 0 view .LVU36
 146 009e 0694     		str	r4, [sp, #24]
 731:Core/Src/main.c ****   GPIO_InitStruct.Speed = GPIO_SPEED_FREQ_LOW;
 147              		.loc 1 731 3 is_stmt 1 view .LVU37
 148              		.loc 1 731 25 is_stmt 0 view .LVU38
 149 00a0 0225     		movs	r5, #2
 150 00a2 0795     		str	r5, [sp, #28]
 732:Core/Src/main.c ****   HAL_GPIO_Init(Control_LED_GPIO_Port, &GPIO_InitStruct);
 151              		.loc 1 732 3 is_stmt 1 view .LVU39
 152 00a4 04A9     		add	r1, sp, #16
 153 00a6 4046     		mov	r0, r8
 154 00a8 FFF7FEFF 		bl	HAL_GPIO_Init
 155              	.LVL4:
 733:Core/Src/main.c **** 
 734:Core/Src/main.c ****   /*Configure GPIO pins : Tube1_Pin Tube2_Pin */
 735:Core/Src/main.c ****   GPIO_InitStruct.Pin = Tube1_Pin|Tube2_Pin;
 156              		.loc 1 735 3 view .LVU40
 157              		.loc 1 735 23 is_stmt 0 view .LVU41
 158 00ac 0323     		movs	r3, #3
 159 00ae 0493     		str	r3, [sp, #16]
 736:Core/Src/main.c ****   GPIO_InitStruct.Mode = GPIO_MODE_IT_RISING;
 160              		.loc 1 736 3 is_stmt 1 view .LVU42
 161              		.loc 1 736 24 is_stmt 0 view .LVU43
 162 00b0 1A4B     		ldr	r3, .L3+16
 163 00b2 0593     		str	r3, [sp, #20]
 737:Core/Src/main.c ****   GPIO_InitStruct.Pull = GPIO_NOPULL;
 164              		.loc 1 737 3 is_stmt 1 view .LVU44
 165              		.loc 1 737 24 is_stmt 0 view .LVU45
 166 00b4 0694     		str	r4, [sp, #24]
 738:Core/Src/main.c ****   HAL_GPIO_Init(GPIOB, &GPIO_InitStruct);
 167              		.loc 1 738 3 is_stmt 1 view .LVU46
 168 00b6 04A9     		add	r1, sp, #16
 169 00b8 3846     		mov	r0, r7
 170 00ba FFF7FEFF 		bl	HAL_GPIO_Init
 171              	.LVL5:
 739:Core/Src/main.c **** 
 740:Core/Src/main.c ****   /*Configure GPIO pins : Relay_Norm_Pin Relay_fDanger_Pin Realy_sDanger_Pin LED_Tick_Pin
 741:Core/Src/main.c ****                            LED_OK_Pin LED_RX_Pin LED_TX_Pin */
 742:Core/Src/main.c ****   GPIO_InitStruct.Pin = Relay_Norm_Pin|Relay_fDanger_Pin|Realy_sDanger_Pin|LED_Tick_Pin
ARM GAS  C:\Users\user\AppData\Local\Temp\ccPopRei.s 			page 17


 172              		.loc 1 742 3 view .LVU47
 173              		.loc 1 742 23 is_stmt 0 view .LVU48
 174 00be 47F27803 		movw	r3, #28792
 175 00c2 0493     		str	r3, [sp, #16]
 743:Core/Src/main.c ****                           |LED_OK_Pin|LED_RX_Pin|LED_TX_Pin;
 744:Core/Src/main.c ****   GPIO_InitStruct.Mode = GPIO_MODE_OUTPUT_PP;
 176              		.loc 1 744 3 is_stmt 1 view .LVU49
 177              		.loc 1 744 24 is_stmt 0 view .LVU50
 178 00c4 0596     		str	r6, [sp, #20]
 745:Core/Src/main.c ****   GPIO_InitStruct.Pull = GPIO_NOPULL;
 179              		.loc 1 745 3 is_stmt 1 view .LVU51
 180              		.loc 1 745 24 is_stmt 0 view .LVU52
 181 00c6 0694     		str	r4, [sp, #24]
 746:Core/Src/main.c ****   GPIO_InitStruct.Speed = GPIO_SPEED_FREQ_LOW;
 182              		.loc 1 746 3 is_stmt 1 view .LVU53
 183              		.loc 1 746 25 is_stmt 0 view .LVU54
 184 00c8 0795     		str	r5, [sp, #28]
 747:Core/Src/main.c ****   HAL_GPIO_Init(GPIOB, &GPIO_InitStruct);
 185              		.loc 1 747 3 is_stmt 1 view .LVU55
 186 00ca 04A9     		add	r1, sp, #16
 187 00cc 3846     		mov	r0, r7
 188 00ce FFF7FEFF 		bl	HAL_GPIO_Init
 189              	.LVL6:
 748:Core/Src/main.c **** 
 749:Core/Src/main.c ****   /*Configure GPIO pins : RS_CTR_Pin Boot_Pin */
 750:Core/Src/main.c ****   GPIO_InitStruct.Pin = RS_CTR_Pin|Boot_Pin|GPIO_PIN_8;
 190              		.loc 1 750 3 view .LVU56
 191              		.loc 1 750 23 is_stmt 0 view .LVU57
 192 00d2 4FF41063 		mov	r3, #2304
 193 00d6 0493     		str	r3, [sp, #16]
 751:Core/Src/main.c ****   GPIO_InitStruct.Mode = GPIO_MODE_OUTPUT_PP;
 194              		.loc 1 751 3 is_stmt 1 view .LVU58
 195              		.loc 1 751 24 is_stmt 0 view .LVU59
 196 00d8 0596     		str	r6, [sp, #20]
 752:Core/Src/main.c ****   GPIO_InitStruct.Pull = GPIO_NOPULL;
 197              		.loc 1 752 3 is_stmt 1 view .LVU60
 198              		.loc 1 752 24 is_stmt 0 view .LVU61
 199 00da 0694     		str	r4, [sp, #24]
 753:Core/Src/main.c ****   GPIO_InitStruct.Speed = GPIO_SPEED_FREQ_LOW;
 200              		.loc 1 753 3 is_stmt 1 view .LVU62
 201              		.loc 1 753 25 is_stmt 0 view .LVU63
 202 00dc 0795     		str	r5, [sp, #28]
 754:Core/Src/main.c ****   HAL_GPIO_Init(GPIOA, &GPIO_InitStruct);
 203              		.loc 1 754 3 is_stmt 1 view .LVU64
 204 00de 04A9     		add	r1, sp, #16
 205 00e0 4846     		mov	r0, r9
 206 00e2 FFF7FEFF 		bl	HAL_GPIO_Init
 207              	.LVL7:
 755:Core/Src/main.c **** 
 756:Core/Src/main.c ****   /* EXTI interrupt init*/
 757:Core/Src/main.c ****   HAL_NVIC_SetPriority(EXTI0_IRQn, 0, 0);
 208              		.loc 1 757 3 view .LVU65
 209 00e6 2246     		mov	r2, r4
 210 00e8 2146     		mov	r1, r4
 211 00ea 0620     		movs	r0, #6
 212 00ec FFF7FEFF 		bl	HAL_NVIC_SetPriority
 213              	.LVL8:
ARM GAS  C:\Users\user\AppData\Local\Temp\ccPopRei.s 			page 18


 758:Core/Src/main.c ****   HAL_NVIC_EnableIRQ(EXTI0_IRQn);
 214              		.loc 1 758 3 view .LVU66
 215 00f0 0620     		movs	r0, #6
 216 00f2 FFF7FEFF 		bl	HAL_NVIC_EnableIRQ
 217              	.LVL9:
 759:Core/Src/main.c **** 
 760:Core/Src/main.c ****   HAL_NVIC_SetPriority(EXTI1_IRQn, 0, 0);
 218              		.loc 1 760 3 view .LVU67
 219 00f6 2246     		mov	r2, r4
 220 00f8 2146     		mov	r1, r4
 221 00fa 0720     		movs	r0, #7
 222 00fc FFF7FEFF 		bl	HAL_NVIC_SetPriority
 223              	.LVL10:
 761:Core/Src/main.c ****   HAL_NVIC_EnableIRQ(EXTI1_IRQn);
 224              		.loc 1 761 3 view .LVU68
 225 0100 0720     		movs	r0, #7
 226 0102 FFF7FEFF 		bl	HAL_NVIC_EnableIRQ
 227              	.LVL11:
 762:Core/Src/main.c **** 
 763:Core/Src/main.c **** }
 228              		.loc 1 763 1 is_stmt 0 view .LVU69
 229 0106 09B0     		add	sp, sp, #36
 230              		.cfi_def_cfa_offset 28
 231              		@ sp needed
 232 0108 BDE8F083 		pop	{r4, r5, r6, r7, r8, r9, pc}
 233              	.L4:
 234              		.align	2
 235              	.L3:
 236 010c 00100240 		.word	1073876992
 237 0110 00100140 		.word	1073811456
 238 0114 000C0140 		.word	1073810432
 239 0118 00080140 		.word	1073809408
 240 011c 00001110 		.word	269549568
 241              		.cfi_endproc
 242              	.LFE81:
 244              		.section	.text.HAL_UART_RxCpltCallback,"ax",%progbits
 245              		.align	1
 246              		.global	HAL_UART_RxCpltCallback
 247              		.syntax unified
 248              		.thumb
 249              		.thumb_func
 250              		.fpu softvfp
 252              	HAL_UART_RxCpltCallback:
 253              	.LVL12:
 254              	.LFB68:
 142:Core/Src/main.c **** 
 255              		.loc 1 142 57 is_stmt 1 view -0
 256              		.cfi_startproc
 257              		@ args = 0, pretend = 0, frame = 0
 258              		@ frame_needed = 0, uses_anonymous_args = 0
 142:Core/Src/main.c **** 
 259              		.loc 1 142 57 is_stmt 0 view .LVU71
 260 0000 10B5     		push	{r4, lr}
 261              		.cfi_def_cfa_offset 8
 262              		.cfi_offset 4, -8
 263              		.cfi_offset 14, -4
 144:Core/Src/main.c **** 
ARM GAS  C:\Users\user\AppData\Local\Temp\ccPopRei.s 			page 19


 264              		.loc 1 144 1 is_stmt 1 view .LVU72
 146:Core/Src/main.c **** fuckIndex++;
 265              		.loc 1 146 1 view .LVU73
 146:Core/Src/main.c **** fuckIndex++;
 266              		.loc 1 146 24 is_stmt 0 view .LVU74
 267 0002 344B     		ldr	r3, .L18
 268 0004 1A68     		ldr	r2, [r3]
 146:Core/Src/main.c **** fuckIndex++;
 269              		.loc 1 146 10 view .LVU75
 270 0006 3449     		ldr	r1, .L18+4
 271 0008 0B88     		ldrh	r3, [r1]
 146:Core/Src/main.c **** fuckIndex++;
 272              		.loc 1 146 24 view .LVU76
 273 000a 92F800C0 		ldrb	ip, [r2]	@ zero_extendqisi2
 146:Core/Src/main.c **** fuckIndex++;
 274              		.loc 1 146 22 view .LVU77
 275 000e 3348     		ldr	r0, .L18+8
 276              	.LVL13:
 146:Core/Src/main.c **** fuckIndex++;
 277              		.loc 1 146 22 view .LVU78
 278 0010 00F803C0 		strb	ip, [r0, r3]
 147:Core/Src/main.c **** if(fuckIndex > 1023)
 279              		.loc 1 147 1 is_stmt 1 view .LVU79
 147:Core/Src/main.c **** if(fuckIndex > 1023)
 280              		.loc 1 147 10 is_stmt 0 view .LVU80
 281 0014 0133     		adds	r3, r3, #1
 282 0016 9BB2     		uxth	r3, r3
 283 0018 0B80     		strh	r3, [r1]	@ movhi
 148:Core/Src/main.c **** {
 284              		.loc 1 148 1 is_stmt 1 view .LVU81
 148:Core/Src/main.c **** {
 285              		.loc 1 148 3 is_stmt 0 view .LVU82
 286 001a B3F5806F 		cmp	r3, #1024
 287 001e 02D3     		bcc	.L6
 150:Core/Src/main.c **** }
 288              		.loc 1 150 3 is_stmt 1 view .LVU83
 150:Core/Src/main.c **** }
 289              		.loc 1 150 13 is_stmt 0 view .LVU84
 290 0020 0B46     		mov	r3, r1
 291 0022 0021     		movs	r1, #0
 292 0024 1980     		strh	r1, [r3]	@ movhi
 293              	.L6:
 153:Core/Src/main.c **** {
 294              		.loc 1 153 1 is_stmt 1 view .LVU85
 153:Core/Src/main.c **** {
 295              		.loc 1 153 4 is_stmt 0 view .LVU86
 296 0026 1378     		ldrb	r3, [r2]	@ zero_extendqisi2
 153:Core/Src/main.c **** {
 297              		.loc 1 153 3 view .LVU87
 298 0028 652B     		cmp	r3, #101
 299 002a 13D0     		beq	.L15
 300              	.L7:
 159:Core/Src/main.c **** {
 301              		.loc 1 159 1 is_stmt 1 view .LVU88
 159:Core/Src/main.c **** {
 302              		.loc 1 159 4 is_stmt 0 view .LVU89
 303 002c 2C4B     		ldr	r3, .L18+12
ARM GAS  C:\Users\user\AppData\Local\Temp\ccPopRei.s 			page 20


 304 002e 1B78     		ldrb	r3, [r3]	@ zero_extendqisi2
 159:Core/Src/main.c **** {
 305              		.loc 1 159 3 view .LVU90
 306 0030 1BB1     		cbz	r3, .L8
 159:Core/Src/main.c **** {
 307              		.loc 1 159 24 discriminator 1 view .LVU91
 308 0032 2C4B     		ldr	r3, .L18+16
 309 0034 1B78     		ldrb	r3, [r3]	@ zero_extendqisi2
 159:Core/Src/main.c **** {
 310              		.loc 1 159 14 discriminator 1 view .LVU92
 311 0036 012B     		cmp	r3, #1
 312 0038 17D0     		beq	.L16
 313              	.L8:
 164:Core/Src/main.c **** {
 314              		.loc 1 164 1 is_stmt 1 view .LVU93
 164:Core/Src/main.c **** {
 315              		.loc 1 164 11 is_stmt 0 view .LVU94
 316 003a 2A4B     		ldr	r3, .L18+16
 317 003c 1B78     		ldrb	r3, [r3]	@ zero_extendqisi2
 164:Core/Src/main.c **** {
 318              		.loc 1 164 3 view .LVU95
 319 003e 0A2B     		cmp	r3, #10
 320 0040 1DD9     		bls	.L9
 166:Core/Src/main.c ****   lenght = 0;
 321              		.loc 1 166 3 is_stmt 1 view .LVU96
 166:Core/Src/main.c ****   lenght = 0;
 322              		.loc 1 166 15 is_stmt 0 view .LVU97
 323 0042 244B     		ldr	r3, .L18
 324 0044 284A     		ldr	r2, .L18+20
 325 0046 1A60     		str	r2, [r3]
 167:Core/Src/main.c ****   AddressOk = false;
 326              		.loc 1 167 3 is_stmt 1 view .LVU98
 167:Core/Src/main.c ****   AddressOk = false;
 327              		.loc 1 167 10 is_stmt 0 view .LVU99
 328 0048 0023     		movs	r3, #0
 329 004a 264A     		ldr	r2, .L18+16
 330 004c 1370     		strb	r3, [r2]
 168:Core/Src/main.c ****   for(int i = 0; i < 10; i++)
 331              		.loc 1 168 3 is_stmt 1 view .LVU100
 168:Core/Src/main.c ****   for(int i = 0; i < 10; i++)
 332              		.loc 1 168 13 is_stmt 0 view .LVU101
 333 004e 244A     		ldr	r2, .L18+12
 334 0050 1370     		strb	r3, [r2]
 169:Core/Src/main.c ****   {
 335              		.loc 1 169 3 is_stmt 1 view .LVU102
 336              	.LBB8:
 169:Core/Src/main.c ****   {
 337              		.loc 1 169 7 view .LVU103
 338              	.LVL14:
 169:Core/Src/main.c ****   {
 339              		.loc 1 169 3 is_stmt 0 view .LVU104
 340 0052 12E0     		b	.L10
 341              	.LVL15:
 342              	.L15:
 169:Core/Src/main.c ****   {
 343              		.loc 1 169 3 view .LVU105
 344              	.LBE8:
ARM GAS  C:\Users\user\AppData\Local\Temp\ccPopRei.s 			page 21


 153:Core/Src/main.c **** {
 345              		.loc 1 153 27 discriminator 1 view .LVU106
 346 0054 224B     		ldr	r3, .L18+12
 347 0056 1B78     		ldrb	r3, [r3]	@ zero_extendqisi2
 153:Core/Src/main.c **** {
 348              		.loc 1 153 24 discriminator 1 view .LVU107
 349 0058 002B     		cmp	r3, #0
 350 005a E7D1     		bne	.L7
 155:Core/Src/main.c ****   lenght = 0;
 351              		.loc 1 155 3 is_stmt 1 view .LVU108
 155:Core/Src/main.c ****   lenght = 0;
 352              		.loc 1 155 13 is_stmt 0 view .LVU109
 353 005c 204B     		ldr	r3, .L18+12
 354 005e 0121     		movs	r1, #1
 355 0060 1970     		strb	r1, [r3]
 156:Core/Src/main.c **** }
 356              		.loc 1 156 3 is_stmt 1 view .LVU110
 156:Core/Src/main.c **** }
 357              		.loc 1 156 10 is_stmt 0 view .LVU111
 358 0062 204B     		ldr	r3, .L18+16
 359 0064 0021     		movs	r1, #0
 360 0066 1970     		strb	r1, [r3]
 361 0068 E0E7     		b	.L7
 362              	.L16:
 161:Core/Src/main.c **** }
 363              		.loc 1 161 3 is_stmt 1 view .LVU112
 161:Core/Src/main.c **** }
 364              		.loc 1 161 17 is_stmt 0 view .LVU113
 365 006a 1278     		ldrb	r2, [r2]	@ zero_extendqisi2
 161:Core/Src/main.c **** }
 366              		.loc 1 161 15 view .LVU114
 367 006c 1F4B     		ldr	r3, .L18+24
 368 006e 1A70     		strb	r2, [r3]
 369 0070 E3E7     		b	.L8
 370              	.LVL16:
 371              	.L11:
 372              	.LBB9:
 171:Core/Src/main.c ****   }
 373              		.loc 1 171 5 is_stmt 1 discriminator 3 view .LVU115
 171:Core/Src/main.c ****   }
 374              		.loc 1 171 16 is_stmt 0 discriminator 3 view .LVU116
 375 0072 1D4A     		ldr	r2, .L18+20
 376 0074 0021     		movs	r1, #0
 377 0076 D154     		strb	r1, [r2, r3]
 169:Core/Src/main.c ****   {
 378              		.loc 1 169 26 is_stmt 1 discriminator 3 view .LVU117
 169:Core/Src/main.c ****   {
 379              		.loc 1 169 27 is_stmt 0 discriminator 3 view .LVU118
 380 0078 0133     		adds	r3, r3, #1
 381              	.LVL17:
 382              	.L10:
 169:Core/Src/main.c ****   {
 383              		.loc 1 169 18 is_stmt 1 discriminator 1 view .LVU119
 169:Core/Src/main.c ****   {
 384              		.loc 1 169 3 is_stmt 0 discriminator 1 view .LVU120
 385 007a 092B     		cmp	r3, #9
 386 007c F9DD     		ble	.L11
ARM GAS  C:\Users\user\AppData\Local\Temp\ccPopRei.s 			page 22


 387              	.LVL18:
 388              	.L9:
 169:Core/Src/main.c ****   {
 389              		.loc 1 169 3 discriminator 1 view .LVU121
 390              	.LBE9:
 175:Core/Src/main.c **** {
 391              		.loc 1 175 1 is_stmt 1 view .LVU122
 175:Core/Src/main.c **** {
 392              		.loc 1 175 4 is_stmt 0 view .LVU123
 393 007e 184B     		ldr	r3, .L18+12
 394 0080 1B78     		ldrb	r3, [r3]	@ zero_extendqisi2
 175:Core/Src/main.c **** {
 395              		.loc 1 175 3 view .LVU124
 396 0082 1BB1     		cbz	r3, .L12
 175:Core/Src/main.c **** {
 397              		.loc 1 175 24 discriminator 1 view .LVU125
 398 0084 174B     		ldr	r3, .L18+16
 399 0086 1B78     		ldrb	r3, [r3]	@ zero_extendqisi2
 175:Core/Src/main.c **** {
 400              		.loc 1 175 14 discriminator 1 view .LVU126
 401 0088 072B     		cmp	r3, #7
 402 008a 12D0     		beq	.L17
 403              	.L12:
 184:Core/Src/main.c ****   ++rx_buff_ptr;
 404              		.loc 1 184 3 is_stmt 1 view .LVU127
 184:Core/Src/main.c ****   ++rx_buff_ptr;
 405              		.loc 1 184 21 is_stmt 0 view .LVU128
 406 008c 1148     		ldr	r0, .L18
 184:Core/Src/main.c ****   ++rx_buff_ptr;
 407              		.loc 1 184 10 view .LVU129
 408 008e 1549     		ldr	r1, .L18+16
 409 0090 0B78     		ldrb	r3, [r1]	@ zero_extendqisi2
 184:Core/Src/main.c ****   ++rx_buff_ptr;
 410              		.loc 1 184 21 view .LVU130
 411 0092 0268     		ldr	r2, [r0]
 412 0094 12F801CB 		ldrb	ip, [r2], #1	@ zero_extendqisi2
 184:Core/Src/main.c ****   ++rx_buff_ptr;
 413              		.loc 1 184 19 view .LVU131
 414 0098 134C     		ldr	r4, .L18+20
 415 009a 04F803C0 		strb	ip, [r4, r3]
 185:Core/Src/main.c ****   ++lenght;
 416              		.loc 1 185 3 is_stmt 1 view .LVU132
 417 009e 0260     		str	r2, [r0]
 186:Core/Src/main.c **** }
 418              		.loc 1 186 3 view .LVU133
 419 00a0 0133     		adds	r3, r3, #1
 420 00a2 0B70     		strb	r3, [r1]
 421              	.L13:
 188:Core/Src/main.c **** }
 422              		.loc 1 188 5 view .LVU134
 423 00a4 0122     		movs	r2, #1
 424 00a6 0B4B     		ldr	r3, .L18
 425 00a8 1968     		ldr	r1, [r3]
 426 00aa 1148     		ldr	r0, .L18+28
 427 00ac FFF7FEFF 		bl	HAL_UART_Receive_IT
 428              	.LVL19:
 189:Core/Src/main.c **** 
ARM GAS  C:\Users\user\AppData\Local\Temp\ccPopRei.s 			page 23


 429              		.loc 1 189 1 is_stmt 0 view .LVU135
 430 00b0 10BD     		pop	{r4, pc}
 431              	.L17:
 175:Core/Src/main.c **** {
 432              		.loc 1 175 44 discriminator 2 view .LVU136
 433 00b2 0E4B     		ldr	r3, .L18+24
 434 00b4 1B78     		ldrb	r3, [r3]	@ zero_extendqisi2
 175:Core/Src/main.c **** {
 435              		.loc 1 175 29 discriminator 2 view .LVU137
 436 00b6 032B     		cmp	r3, #3
 437 00b8 E8D1     		bne	.L12
 177:Core/Src/main.c ****   AddressOk = false;
 438              		.loc 1 177 3 is_stmt 1 view .LVU138
 177:Core/Src/main.c ****   AddressOk = false;
 439              		.loc 1 177 15 is_stmt 0 view .LVU139
 440 00ba 064B     		ldr	r3, .L18
 441 00bc 0A4A     		ldr	r2, .L18+20
 442 00be 1A60     		str	r2, [r3]
 178:Core/Src/main.c ****   lenght = 0;
 443              		.loc 1 178 3 is_stmt 1 view .LVU140
 178:Core/Src/main.c ****   lenght = 0;
 444              		.loc 1 178 13 is_stmt 0 view .LVU141
 445 00c0 0023     		movs	r3, #0
 446 00c2 074A     		ldr	r2, .L18+12
 447 00c4 1370     		strb	r3, [r2]
 179:Core/Src/main.c ****   rx_flag = true;
 448              		.loc 1 179 3 is_stmt 1 view .LVU142
 179:Core/Src/main.c ****   rx_flag = true;
 449              		.loc 1 179 10 is_stmt 0 view .LVU143
 450 00c6 074A     		ldr	r2, .L18+16
 451 00c8 1370     		strb	r3, [r2]
 180:Core/Src/main.c **** }
 452              		.loc 1 180 3 is_stmt 1 view .LVU144
 180:Core/Src/main.c **** }
 453              		.loc 1 180 11 is_stmt 0 view .LVU145
 454 00ca 0A4B     		ldr	r3, .L18+32
 455 00cc 0122     		movs	r2, #1
 456 00ce 1A70     		strb	r2, [r3]
 457 00d0 E8E7     		b	.L13
 458              	.L19:
 459 00d2 00BF     		.align	2
 460              	.L18:
 461 00d4 00000000 		.word	.LANCHOR0
 462 00d8 00000000 		.word	.LANCHOR1
 463 00dc 00000000 		.word	.LANCHOR2
 464 00e0 00000000 		.word	.LANCHOR3
 465 00e4 00000000 		.word	.LANCHOR4
 466 00e8 00000000 		.word	.LANCHOR6
 467 00ec 00000000 		.word	.LANCHOR5
 468 00f0 00000000 		.word	.LANCHOR8
 469 00f4 00000000 		.word	.LANCHOR7
 470              		.cfi_endproc
 471              	.LFE68:
 473              		.section	.text.NOS_ModBus_SendSlaveCommand,"ax",%progbits
 474              		.align	1
 475              		.global	NOS_ModBus_SendSlaveCommand
 476              		.syntax unified
ARM GAS  C:\Users\user\AppData\Local\Temp\ccPopRei.s 			page 24


 477              		.thumb
 478              		.thumb_func
 479              		.fpu softvfp
 481              	NOS_ModBus_SendSlaveCommand:
 482              	.LVL20:
 483              	.LFB69:
 192:Core/Src/main.c ****   //HAL_GPIO_WritePin(Led_Port,Transmit_LED,1);
 484              		.loc 1 192 1 is_stmt 1 view -0
 485              		.cfi_startproc
 486              		@ args = 0, pretend = 0, frame = 0
 487              		@ frame_needed = 0, uses_anonymous_args = 0
 194:Core/Src/main.c ****   {
 488              		.loc 1 194 3 view .LVU147
 194:Core/Src/main.c ****   {
 489              		.loc 1 194 11 is_stmt 0 view .LVU148
 490 0000 0378     		ldrb	r3, [r0]	@ zero_extendqisi2
 194:Core/Src/main.c ****   {
 491              		.loc 1 194 5 view .LVU149
 492 0002 012B     		cmp	r3, #1
 493 0004 00D9     		bls	.L28
 494 0006 7047     		bx	lr
 495              	.L28:
 192:Core/Src/main.c ****   //HAL_GPIO_WritePin(Led_Port,Transmit_LED,1);
 496              		.loc 1 192 1 view .LVU150
 497 0008 10B5     		push	{r4, lr}
 498              		.cfi_def_cfa_offset 8
 499              		.cfi_offset 4, -8
 500              		.cfi_offset 14, -4
 501              	.LBB10:
 196:Core/Src/main.c ****     tx_buff[1] = slave->Command;
 502              		.loc 1 196 5 is_stmt 1 view .LVU151
 196:Core/Src/main.c ****     tx_buff[1] = slave->Command;
 503              		.loc 1 196 23 is_stmt 0 view .LVU152
 504 000a 4278     		ldrb	r2, [r0, #1]	@ zero_extendqisi2
 196:Core/Src/main.c ****     tx_buff[1] = slave->Command;
 505              		.loc 1 196 16 view .LVU153
 506 000c 1A4B     		ldr	r3, .L29
 507 000e 1A70     		strb	r2, [r3]
 197:Core/Src/main.c ****     tx_buff[2] = slave->Byte_Count;
 508              		.loc 1 197 5 is_stmt 1 view .LVU154
 197:Core/Src/main.c ****     tx_buff[2] = slave->Byte_Count;
 509              		.loc 1 197 23 is_stmt 0 view .LVU155
 510 0010 8278     		ldrb	r2, [r0, #2]	@ zero_extendqisi2
 197:Core/Src/main.c ****     tx_buff[2] = slave->Byte_Count;
 511              		.loc 1 197 16 view .LVU156
 512 0012 5A70     		strb	r2, [r3, #1]
 198:Core/Src/main.c ****     NOS_Short crc;
 513              		.loc 1 198 5 is_stmt 1 view .LVU157
 198:Core/Src/main.c ****     NOS_Short crc;
 514              		.loc 1 198 23 is_stmt 0 view .LVU158
 515 0014 C278     		ldrb	r2, [r0, #3]	@ zero_extendqisi2
 198:Core/Src/main.c ****     NOS_Short crc;
 516              		.loc 1 198 16 view .LVU159
 517 0016 9A70     		strb	r2, [r3, #2]
 199:Core/Src/main.c ****     if(slave->type == 0)
 518              		.loc 1 199 5 is_stmt 1 view .LVU160
 200:Core/Src/main.c ****     {
ARM GAS  C:\Users\user\AppData\Local\Temp\ccPopRei.s 			page 25


 519              		.loc 1 200 5 view .LVU161
 200:Core/Src/main.c ****     {
 520              		.loc 1 200 13 is_stmt 0 view .LVU162
 521 0018 0378     		ldrb	r3, [r0]	@ zero_extendqisi2
 200:Core/Src/main.c ****     {
 522              		.loc 1 200 7 view .LVU163
 523 001a A3B9     		cbnz	r3, .L22
 202:Core/Src/main.c ****       tx_buff[4] = slave->ShortValue.bytes[1];
 524              		.loc 1 202 7 is_stmt 1 view .LVU164
 202:Core/Src/main.c ****       tx_buff[4] = slave->ShortValue.bytes[1];
 525              		.loc 1 202 43 is_stmt 0 view .LVU165
 526 001c 0379     		ldrb	r3, [r0, #4]	@ zero_extendqisi2
 202:Core/Src/main.c ****       tx_buff[4] = slave->ShortValue.bytes[1];
 527              		.loc 1 202 18 view .LVU166
 528 001e 164C     		ldr	r4, .L29
 529 0020 E370     		strb	r3, [r4, #3]
 203:Core/Src/main.c ****       crc.data = GetCRC16(&tx_buff,5);
 530              		.loc 1 203 7 is_stmt 1 view .LVU167
 203:Core/Src/main.c ****       crc.data = GetCRC16(&tx_buff,5);
 531              		.loc 1 203 43 is_stmt 0 view .LVU168
 532 0022 4379     		ldrb	r3, [r0, #5]	@ zero_extendqisi2
 203:Core/Src/main.c ****       crc.data = GetCRC16(&tx_buff,5);
 533              		.loc 1 203 18 view .LVU169
 534 0024 2371     		strb	r3, [r4, #4]
 204:Core/Src/main.c ****       tx_buff[5] = crc.bytes[1];
 535              		.loc 1 204 7 is_stmt 1 view .LVU170
 204:Core/Src/main.c ****       tx_buff[5] = crc.bytes[1];
 536              		.loc 1 204 18 is_stmt 0 view .LVU171
 537 0026 0521     		movs	r1, #5
 538 0028 2046     		mov	r0, r4
 539              	.LVL21:
 204:Core/Src/main.c ****       tx_buff[5] = crc.bytes[1];
 540              		.loc 1 204 18 view .LVU172
 541 002a FFF7FEFF 		bl	GetCRC16
 542              	.LVL22:
 205:Core/Src/main.c ****       tx_buff[6] = crc.bytes[0];
 543              		.loc 1 205 7 is_stmt 1 view .LVU173
 205:Core/Src/main.c ****       tx_buff[6] = crc.bytes[0];
 544              		.loc 1 205 18 is_stmt 0 view .LVU174
 545 002e C0F30723 		ubfx	r3, r0, #8, #8
 546 0032 6371     		strb	r3, [r4, #5]
 206:Core/Src/main.c ****       HAL_UART_Transmit(&huart1,&tx_buff,7,1000);
 547              		.loc 1 206 7 is_stmt 1 view .LVU175
 206:Core/Src/main.c ****       HAL_UART_Transmit(&huart1,&tx_buff,7,1000);
 548              		.loc 1 206 18 is_stmt 0 view .LVU176
 549 0034 A071     		strb	r0, [r4, #6]
 207:Core/Src/main.c ****     }
 550              		.loc 1 207 7 is_stmt 1 view .LVU177
 551 0036 4FF47A73 		mov	r3, #1000
 552 003a 0722     		movs	r2, #7
 553 003c 2146     		mov	r1, r4
 554 003e 0F48     		ldr	r0, .L29+4
 555 0040 FFF7FEFF 		bl	HAL_UART_Transmit
 556              	.LVL23:
 557              	.L20:
 558              	.LBE10:
 221:Core/Src/main.c **** 
ARM GAS  C:\Users\user\AppData\Local\Temp\ccPopRei.s 			page 26


 559              		.loc 1 221 1 is_stmt 0 view .LVU178
 560 0044 10BD     		pop	{r4, pc}
 561              	.LVL24:
 562              	.L22:
 563              	.LBB11:
 211:Core/Src/main.c ****       tx_buff[4] = slave->FloatValue.bytes[2];
 564              		.loc 1 211 7 is_stmt 1 view .LVU179
 211:Core/Src/main.c ****       tx_buff[4] = slave->FloatValue.bytes[2];
 565              		.loc 1 211 43 is_stmt 0 view .LVU180
 566 0046 C37A     		ldrb	r3, [r0, #11]	@ zero_extendqisi2
 211:Core/Src/main.c ****       tx_buff[4] = slave->FloatValue.bytes[2];
 567              		.loc 1 211 18 view .LVU181
 568 0048 0B4C     		ldr	r4, .L29
 569 004a E370     		strb	r3, [r4, #3]
 212:Core/Src/main.c ****       tx_buff[5] = slave->FloatValue.bytes[1];
 570              		.loc 1 212 7 is_stmt 1 view .LVU182
 212:Core/Src/main.c ****       tx_buff[5] = slave->FloatValue.bytes[1];
 571              		.loc 1 212 43 is_stmt 0 view .LVU183
 572 004c 837A     		ldrb	r3, [r0, #10]	@ zero_extendqisi2
 212:Core/Src/main.c ****       tx_buff[5] = slave->FloatValue.bytes[1];
 573              		.loc 1 212 18 view .LVU184
 574 004e 2371     		strb	r3, [r4, #4]
 213:Core/Src/main.c ****       tx_buff[6] = slave->FloatValue.bytes[0];
 575              		.loc 1 213 7 is_stmt 1 view .LVU185
 213:Core/Src/main.c ****       tx_buff[6] = slave->FloatValue.bytes[0];
 576              		.loc 1 213 43 is_stmt 0 view .LVU186
 577 0050 437A     		ldrb	r3, [r0, #9]	@ zero_extendqisi2
 213:Core/Src/main.c ****       tx_buff[6] = slave->FloatValue.bytes[0];
 578              		.loc 1 213 18 view .LVU187
 579 0052 6371     		strb	r3, [r4, #5]
 214:Core/Src/main.c ****       crc.data = GetCRC16(&tx_buff,7);
 580              		.loc 1 214 7 is_stmt 1 view .LVU188
 214:Core/Src/main.c ****       crc.data = GetCRC16(&tx_buff,7);
 581              		.loc 1 214 43 is_stmt 0 view .LVU189
 582 0054 037A     		ldrb	r3, [r0, #8]	@ zero_extendqisi2
 214:Core/Src/main.c ****       crc.data = GetCRC16(&tx_buff,7);
 583              		.loc 1 214 18 view .LVU190
 584 0056 A371     		strb	r3, [r4, #6]
 215:Core/Src/main.c ****       tx_buff[8] = crc.bytes[1];
 585              		.loc 1 215 7 is_stmt 1 view .LVU191
 215:Core/Src/main.c ****       tx_buff[8] = crc.bytes[1];
 586              		.loc 1 215 18 is_stmt 0 view .LVU192
 587 0058 0721     		movs	r1, #7
 588 005a 2046     		mov	r0, r4
 589              	.LVL25:
 215:Core/Src/main.c ****       tx_buff[8] = crc.bytes[1];
 590              		.loc 1 215 18 view .LVU193
 591 005c FFF7FEFF 		bl	GetCRC16
 592              	.LVL26:
 216:Core/Src/main.c ****       tx_buff[9] = crc.bytes[0];
 593              		.loc 1 216 7 is_stmt 1 view .LVU194
 216:Core/Src/main.c ****       tx_buff[9] = crc.bytes[0];
 594              		.loc 1 216 18 is_stmt 0 view .LVU195
 595 0060 C0F30723 		ubfx	r3, r0, #8, #8
 596 0064 2372     		strb	r3, [r4, #8]
 217:Core/Src/main.c ****       HAL_UART_Transmit(&huart1,&tx_buff,9,1000);
 597              		.loc 1 217 7 is_stmt 1 view .LVU196
ARM GAS  C:\Users\user\AppData\Local\Temp\ccPopRei.s 			page 27


 217:Core/Src/main.c ****       HAL_UART_Transmit(&huart1,&tx_buff,9,1000);
 598              		.loc 1 217 18 is_stmt 0 view .LVU197
 599 0066 6072     		strb	r0, [r4, #9]
 218:Core/Src/main.c ****     }
 600              		.loc 1 218 7 is_stmt 1 view .LVU198
 601 0068 4FF47A73 		mov	r3, #1000
 602 006c 0922     		movs	r2, #9
 603 006e 2146     		mov	r1, r4
 604 0070 0248     		ldr	r0, .L29+4
 605 0072 FFF7FEFF 		bl	HAL_UART_Transmit
 606              	.LVL27:
 607              	.LBE11:
 221:Core/Src/main.c **** 
 608              		.loc 1 221 1 is_stmt 0 view .LVU199
 609 0076 E5E7     		b	.L20
 610              	.L30:
 611              		.align	2
 612              	.L29:
 613 0078 00000000 		.word	.LANCHOR9
 614 007c 00000000 		.word	.LANCHOR8
 615              		.cfi_endproc
 616              	.LFE69:
 618              		.section	.text.GM2_SendDebugData,"ax",%progbits
 619              		.align	1
 620              		.global	GM2_SendDebugData
 621              		.syntax unified
 622              		.thumb
 623              		.thumb_func
 624              		.fpu softvfp
 626              	GM2_SendDebugData:
 627              	.LFB70:
 224:Core/Src/main.c **** 
 628              		.loc 1 224 1 is_stmt 1 view -0
 629              		.cfi_startproc
 630              		@ args = 0, pretend = 0, frame = 32
 631              		@ frame_needed = 0, uses_anonymous_args = 0
 632 0000 10B5     		push	{r4, lr}
 633              		.cfi_def_cfa_offset 8
 634              		.cfi_offset 4, -8
 635              		.cfi_offset 14, -4
 636 0002 88B0     		sub	sp, sp, #32
 637              		.cfi_def_cfa_offset 40
 226:Core/Src/main.c ****  debugBuff[0] = 0x65;
 638              		.loc 1 226 3 view .LVU201
 227:Core/Src/main.c ****  NOS_ModBus_AddUint16ToBuff(&debugBuff,show_tickcount1,1);
 639              		.loc 1 227 2 view .LVU202
 227:Core/Src/main.c ****  NOS_ModBus_AddUint16ToBuff(&debugBuff,show_tickcount1,1);
 640              		.loc 1 227 15 is_stmt 0 view .LVU203
 641 0004 6523     		movs	r3, #101
 642 0006 8DF80030 		strb	r3, [sp]
 228:Core/Src/main.c ****  NOS_ModBus_AddUint16ToBuff(&debugBuff,show_tickcount2,3);
 643              		.loc 1 228 2 is_stmt 1 view .LVU204
 644 000a 0122     		movs	r2, #1
 645 000c 1F4B     		ldr	r3, .L33
 646 000e 1988     		ldrh	r1, [r3]
 647 0010 6846     		mov	r0, sp
 648 0012 FFF7FEFF 		bl	NOS_ModBus_AddUint16ToBuff
ARM GAS  C:\Users\user\AppData\Local\Temp\ccPopRei.s 			page 28


 649              	.LVL28:
 229:Core/Src/main.c ****  NOS_ModBus_AddUint16ToBuff(&debugBuff,show_globaltickcount,5);
 650              		.loc 1 229 2 view .LVU205
 651 0016 0322     		movs	r2, #3
 652 0018 1D4B     		ldr	r3, .L33+4
 653 001a 1988     		ldrh	r1, [r3]
 654 001c 6846     		mov	r0, sp
 655 001e FFF7FEFF 		bl	NOS_ModBus_AddUint16ToBuff
 656              	.LVL29:
 230:Core/Src/main.c ****  NOS_ModBus_AddFloatToBuff(&debugBuff,uSvValue.data,7);
 657              		.loc 1 230 2 view .LVU206
 658 0022 0522     		movs	r2, #5
 659 0024 1B4B     		ldr	r3, .L33+8
 660 0026 1988     		ldrh	r1, [r3]
 661 0028 6846     		mov	r0, sp
 662 002a FFF7FEFF 		bl	NOS_ModBus_AddUint16ToBuff
 663              	.LVL30:
 231:Core/Src/main.c ****  NOS_ModBus_AddFloatToBuff(&debugBuff,stat.CPS,11);
 664              		.loc 1 231 2 view .LVU207
 665 002e 0722     		movs	r2, #7
 666 0030 194B     		ldr	r3, .L33+12
 667 0032 1968     		ldr	r1, [r3]	@ float
 668 0034 6846     		mov	r0, sp
 669 0036 FFF7FEFF 		bl	NOS_ModBus_AddFloatToBuff
 670              	.LVL31:
 232:Core/Src/main.c ****  NOS_ModBus_AddUint16ToBuff(&debugBuff,stat.Delta,15);
 671              		.loc 1 232 2 view .LVU208
 672 003a 184C     		ldr	r4, .L33+16
 673 003c 0B22     		movs	r2, #11
 674 003e 6168     		ldr	r1, [r4, #4]	@ float
 675 0040 6846     		mov	r0, sp
 676 0042 FFF7FEFF 		bl	NOS_ModBus_AddFloatToBuff
 677              	.LVL32:
 233:Core/Src/main.c ****  NOS_ModBus_AddUint16ToBuff(&debugBuff,temperature,17);
 678              		.loc 1 233 2 view .LVU209
 679 0046 0F22     		movs	r2, #15
 680 0048 217A     		ldrb	r1, [r4, #8]	@ zero_extendqisi2
 681 004a 6846     		mov	r0, sp
 682 004c FFF7FEFF 		bl	NOS_ModBus_AddUint16ToBuff
 683              	.LVL33:
 234:Core/Src/main.c ****  NOS_ModBus_AddFloatToBuff(&debugBuff,coef,19);
 684              		.loc 1 234 2 view .LVU210
 685 0050 1122     		movs	r2, #17
 686 0052 134B     		ldr	r3, .L33+20
 687 0054 1988     		ldrh	r1, [r3]
 688 0056 6846     		mov	r0, sp
 689 0058 FFF7FEFF 		bl	NOS_ModBus_AddUint16ToBuff
 690              	.LVL34:
 235:Core/Src/main.c ****  NOS_ModBus_AddUint16ToBuff(&debugBuff,voltage,23);
 691              		.loc 1 235 2 view .LVU211
 692 005c 1322     		movs	r2, #19
 693 005e 114B     		ldr	r3, .L33+24
 694 0060 1968     		ldr	r1, [r3]	@ float
 695 0062 6846     		mov	r0, sp
 696 0064 FFF7FEFF 		bl	NOS_ModBus_AddFloatToBuff
 697              	.LVL35:
 236:Core/Src/main.c ****  debugBuff[25] = '\n';
ARM GAS  C:\Users\user\AppData\Local\Temp\ccPopRei.s 			page 29


 698              		.loc 1 236 2 view .LVU212
 699 0068 1722     		movs	r2, #23
 700 006a 0F4B     		ldr	r3, .L33+28
 701 006c 1988     		ldrh	r1, [r3]
 702 006e 6846     		mov	r0, sp
 703 0070 FFF7FEFF 		bl	NOS_ModBus_AddUint16ToBuff
 704              	.LVL36:
 237:Core/Src/main.c ****  HAL_UART_Transmit(&huart1,debugBuff,26,1000);
 705              		.loc 1 237 2 view .LVU213
 237:Core/Src/main.c ****  HAL_UART_Transmit(&huart1,debugBuff,26,1000);
 706              		.loc 1 237 16 is_stmt 0 view .LVU214
 707 0074 0A23     		movs	r3, #10
 708 0076 8DF81930 		strb	r3, [sp, #25]
 238:Core/Src/main.c **** }
 709              		.loc 1 238 2 is_stmt 1 view .LVU215
 710 007a 4FF47A73 		mov	r3, #1000
 711 007e 1A22     		movs	r2, #26
 712 0080 6946     		mov	r1, sp
 713 0082 0A48     		ldr	r0, .L33+32
 714 0084 FFF7FEFF 		bl	HAL_UART_Transmit
 715              	.LVL37:
 239:Core/Src/main.c **** 
 716              		.loc 1 239 1 is_stmt 0 view .LVU216
 717 0088 08B0     		add	sp, sp, #32
 718              		.cfi_def_cfa_offset 8
 719              		@ sp needed
 720 008a 10BD     		pop	{r4, pc}
 721              	.L34:
 722              		.align	2
 723              	.L33:
 724 008c 00000000 		.word	.LANCHOR10
 725 0090 00000000 		.word	.LANCHOR11
 726 0094 00000000 		.word	.LANCHOR12
 727 0098 00000000 		.word	.LANCHOR13
 728 009c 00000000 		.word	.LANCHOR14
 729 00a0 00000000 		.word	.LANCHOR15
 730 00a4 00000000 		.word	.LANCHOR16
 731 00a8 00000000 		.word	.LANCHOR17
 732 00ac 00000000 		.word	.LANCHOR8
 733              		.cfi_endproc
 734              	.LFE70:
 736              		.section	.text.SysTick_Handler,"ax",%progbits
 737              		.align	1
 738              		.global	SysTick_Handler
 739              		.syntax unified
 740              		.thumb
 741              		.thumb_func
 742              		.fpu softvfp
 744              	SysTick_Handler:
 745              	.LFB71:
 242:Core/Src/main.c ****   /* USER CODE BEGIN SysTick_IRQn 0 */
 746              		.loc 1 242 1 is_stmt 1 view -0
 747              		.cfi_startproc
 748              		@ args = 0, pretend = 0, frame = 0
 749              		@ frame_needed = 0, uses_anonymous_args = 0
 750 0000 08B5     		push	{r3, lr}
 751              		.cfi_def_cfa_offset 8
ARM GAS  C:\Users\user\AppData\Local\Temp\ccPopRei.s 			page 30


 752              		.cfi_offset 3, -8
 753              		.cfi_offset 14, -4
 246:Core/Src/main.c ****   /* USER CODE BEGIN SysTick_IRQn 1 */
 754              		.loc 1 246 3 view .LVU218
 755 0002 FFF7FEFF 		bl	HAL_IncTick
 756              	.LVL38:
 248:Core/Src/main.c **** 
 757              		.loc 1 248 1 view .LVU219
 248:Core/Src/main.c **** 
 758              		.loc 1 248 5 is_stmt 0 view .LVU220
 759 0006 134A     		ldr	r2, .L40
 760 0008 1388     		ldrh	r3, [r2]
 248:Core/Src/main.c **** 
 761              		.loc 1 248 10 view .LVU221
 762 000a 0133     		adds	r3, r3, #1
 763 000c 9BB2     		uxth	r3, r3
 764 000e 1380     		strh	r3, [r2]	@ movhi
 250:Core/Src/main.c ****    globalTickCount = tickcount1 + tickcount2;
 765              		.loc 1 250 1 is_stmt 1 view .LVU222
 250:Core/Src/main.c ****    globalTickCount = tickcount1 + tickcount2;
 766              		.loc 1 250 3 is_stmt 0 view .LVU223
 767 0010 F92B     		cmp	r3, #249
 768 0012 00D8     		bhi	.L39
 769              	.L35:
 266:Core/Src/main.c **** 
 770              		.loc 1 266 1 view .LVU224
 771 0014 08BD     		pop	{r3, pc}
 772              	.L39:
 251:Core/Src/main.c ****    show_globaltickcount = globalTickCount;
 773              		.loc 1 251 4 is_stmt 1 view .LVU225
 251:Core/Src/main.c ****    show_globaltickcount = globalTickCount;
 774              		.loc 1 251 33 is_stmt 0 view .LVU226
 775 0016 104B     		ldr	r3, .L40+4
 776 0018 1A88     		ldrh	r2, [r3]
 777 001a 104B     		ldr	r3, .L40+8
 778 001c 1B88     		ldrh	r3, [r3]
 779 001e D018     		adds	r0, r2, r3
 780 0020 80B2     		uxth	r0, r0
 251:Core/Src/main.c ****    show_globaltickcount = globalTickCount;
 781              		.loc 1 251 20 view .LVU227
 782 0022 0F49     		ldr	r1, .L40+12
 783 0024 0880     		strh	r0, [r1]	@ movhi
 252:Core/Src/main.c ****    show_tickcount1 = tickcount1;
 784              		.loc 1 252 4 is_stmt 1 view .LVU228
 252:Core/Src/main.c ****    show_tickcount1 = tickcount1;
 785              		.loc 1 252 25 is_stmt 0 view .LVU229
 786 0026 0F49     		ldr	r1, .L40+16
 787 0028 0880     		strh	r0, [r1]	@ movhi
 253:Core/Src/main.c ****    show_tickcount2 = tickcount2;
 788              		.loc 1 253 4 is_stmt 1 view .LVU230
 253:Core/Src/main.c ****    show_tickcount2 = tickcount2;
 789              		.loc 1 253 20 is_stmt 0 view .LVU231
 790 002a 0F49     		ldr	r1, .L40+20
 791 002c 0A80     		strh	r2, [r1]	@ movhi
 254:Core/Src/main.c **** 
 792              		.loc 1 254 4 is_stmt 1 view .LVU232
 254:Core/Src/main.c **** 
ARM GAS  C:\Users\user\AppData\Local\Temp\ccPopRei.s 			page 31


 793              		.loc 1 254 20 is_stmt 0 view .LVU233
 794 002e 0F4A     		ldr	r2, .L40+24
 795 0030 1380     		strh	r3, [r2]	@ movhi
 256:Core/Src/main.c ****    if(tubeIsIn)
 796              		.loc 1 256 4 is_stmt 1 view .LVU234
 797 0032 FFF7FEFF 		bl	Stat_AddData250ms
 798              	.LVL39:
 257:Core/Src/main.c ****    {
 799              		.loc 1 257 4 view .LVU235
 257:Core/Src/main.c ****    {
 800              		.loc 1 257 7 is_stmt 0 view .LVU236
 801 0036 0E4B     		ldr	r3, .L40+28
 802 0038 1B78     		ldrb	r3, [r3]	@ zero_extendqisi2
 257:Core/Src/main.c ****    {
 803              		.loc 1 257 6 view .LVU237
 804 003a 23B1     		cbz	r3, .L37
 259:Core/Src/main.c ****       tickcount2 = 0;
 805              		.loc 1 259 7 is_stmt 1 view .LVU238
 259:Core/Src/main.c ****       tickcount2 = 0;
 806              		.loc 1 259 18 is_stmt 0 view .LVU239
 807 003c 0023     		movs	r3, #0
 808 003e 064A     		ldr	r2, .L40+4
 809 0040 1380     		strh	r3, [r2]	@ movhi
 260:Core/Src/main.c ****    }      
 810              		.loc 1 260 7 is_stmt 1 view .LVU240
 260:Core/Src/main.c ****    }      
 811              		.loc 1 260 18 is_stmt 0 view .LVU241
 812 0042 064A     		ldr	r2, .L40+8
 813 0044 1380     		strh	r3, [r2]	@ movhi
 814              	.L37:
 262:Core/Src/main.c ****    time.data = 0;  
 815              		.loc 1 262 4 is_stmt 1 view .LVU242
 262:Core/Src/main.c ****    time.data = 0;  
 816              		.loc 1 262 14 is_stmt 0 view .LVU243
 817 0046 0B4B     		ldr	r3, .L40+32
 818 0048 0122     		movs	r2, #1
 819 004a 1A70     		strb	r2, [r3]
 263:Core/Src/main.c **** }
 820              		.loc 1 263 4 is_stmt 1 view .LVU244
 263:Core/Src/main.c **** }
 821              		.loc 1 263 14 is_stmt 0 view .LVU245
 822 004c 014B     		ldr	r3, .L40
 823 004e 0022     		movs	r2, #0
 824 0050 1A80     		strh	r2, [r3]	@ movhi
 266:Core/Src/main.c **** 
 825              		.loc 1 266 1 view .LVU246
 826 0052 DFE7     		b	.L35
 827              	.L41:
 828              		.align	2
 829              	.L40:
 830 0054 00000000 		.word	.LANCHOR18
 831 0058 00000000 		.word	.LANCHOR19
 832 005c 00000000 		.word	.LANCHOR20
 833 0060 00000000 		.word	.LANCHOR21
 834 0064 00000000 		.word	.LANCHOR12
 835 0068 00000000 		.word	.LANCHOR10
 836 006c 00000000 		.word	.LANCHOR11
ARM GAS  C:\Users\user\AppData\Local\Temp\ccPopRei.s 			page 32


 837 0070 00000000 		.word	.LANCHOR22
 838 0074 00000000 		.word	.LANCHOR23
 839              		.cfi_endproc
 840              	.LFE71:
 842              		.section	.text.EXTI0_IRQHandler,"ax",%progbits
 843              		.align	1
 844              		.global	EXTI0_IRQHandler
 845              		.syntax unified
 846              		.thumb
 847              		.thumb_func
 848              		.fpu softvfp
 850              	EXTI0_IRQHandler:
 851              	.LFB72:
 269:Core/Src/main.c ****   /* USER CODE BEGIN EXTI0_IRQn 0 */
 852              		.loc 1 269 1 is_stmt 1 view -0
 853              		.cfi_startproc
 854              		@ args = 0, pretend = 0, frame = 0
 855              		@ frame_needed = 0, uses_anonymous_args = 0
 856 0000 08B5     		push	{r3, lr}
 857              		.cfi_def_cfa_offset 8
 858              		.cfi_offset 3, -8
 859              		.cfi_offset 14, -4
 271:Core/Src/main.c ****   HAL_GPIO_TogglePin(GPIOC,GPIO_PIN_13);
 860              		.loc 1 271 3 view .LVU248
 271:Core/Src/main.c ****   HAL_GPIO_TogglePin(GPIOC,GPIO_PIN_13);
 861              		.loc 1 271 13 is_stmt 0 view .LVU249
 862 0002 074A     		ldr	r2, .L44
 863 0004 1388     		ldrh	r3, [r2]
 864 0006 0133     		adds	r3, r3, #1
 865 0008 1380     		strh	r3, [r2]	@ movhi
 272:Core/Src/main.c ****   tubeIsIn = true;
 866              		.loc 1 272 3 is_stmt 1 view .LVU250
 867 000a 4FF40051 		mov	r1, #8192
 868 000e 0548     		ldr	r0, .L44+4
 869 0010 FFF7FEFF 		bl	HAL_GPIO_TogglePin
 870              	.LVL40:
 273:Core/Src/main.c ****   /* USER CODE END EXTI0_IRQn 0 */
 871              		.loc 1 273 3 view .LVU251
 273:Core/Src/main.c ****   /* USER CODE END EXTI0_IRQn 0 */
 872              		.loc 1 273 12 is_stmt 0 view .LVU252
 873 0014 0120     		movs	r0, #1
 874 0016 044B     		ldr	r3, .L44+8
 875 0018 1870     		strb	r0, [r3]
 275:Core/Src/main.c ****   /* USER CODE BEGIN EXTI0_IRQn 1 */
 876              		.loc 1 275 3 is_stmt 1 view .LVU253
 877 001a FFF7FEFF 		bl	HAL_GPIO_EXTI_IRQHandler
 878              	.LVL41:
 279:Core/Src/main.c **** /* USER CODE END 0 */
 879              		.loc 1 279 1 is_stmt 0 view .LVU254
 880 001e 08BD     		pop	{r3, pc}
 881              	.L45:
 882              		.align	2
 883              	.L44:
 884 0020 00000000 		.word	.LANCHOR19
 885 0024 00100140 		.word	1073811456
 886 0028 00000000 		.word	.LANCHOR22
 887              		.cfi_endproc
ARM GAS  C:\Users\user\AppData\Local\Temp\ccPopRei.s 			page 33


 888              	.LFE72:
 890              		.section	.text.EXTI1_IRQHandler,"ax",%progbits
 891              		.align	1
 892              		.global	EXTI1_IRQHandler
 893              		.syntax unified
 894              		.thumb
 895              		.thumb_func
 896              		.fpu softvfp
 898              	EXTI1_IRQHandler:
 899              	.LFB73:
 282:Core/Src/main.c ****   /* USER CODE BEGIN EXTI0_IRQn 0 */
 900              		.loc 1 282 1 is_stmt 1 view -0
 901              		.cfi_startproc
 902              		@ args = 0, pretend = 0, frame = 0
 903              		@ frame_needed = 0, uses_anonymous_args = 0
 904 0000 08B5     		push	{r3, lr}
 905              		.cfi_def_cfa_offset 8
 906              		.cfi_offset 3, -8
 907              		.cfi_offset 14, -4
 284:Core/Src/main.c ****   HAL_GPIO_TogglePin(GPIOC,GPIO_PIN_13);
 908              		.loc 1 284 3 view .LVU256
 284:Core/Src/main.c ****   HAL_GPIO_TogglePin(GPIOC,GPIO_PIN_13);
 909              		.loc 1 284 13 is_stmt 0 view .LVU257
 910 0002 084A     		ldr	r2, .L48
 911 0004 1388     		ldrh	r3, [r2]
 912 0006 0133     		adds	r3, r3, #1
 913 0008 1380     		strh	r3, [r2]	@ movhi
 285:Core/Src/main.c ****   tubeIsIn = true;
 914              		.loc 1 285 3 is_stmt 1 view .LVU258
 915 000a 4FF40051 		mov	r1, #8192
 916 000e 0648     		ldr	r0, .L48+4
 917 0010 FFF7FEFF 		bl	HAL_GPIO_TogglePin
 918              	.LVL42:
 286:Core/Src/main.c ****   /* USER CODE END EXTI0_IRQn 0 */
 919              		.loc 1 286 3 view .LVU259
 286:Core/Src/main.c ****   /* USER CODE END EXTI0_IRQn 0 */
 920              		.loc 1 286 12 is_stmt 0 view .LVU260
 921 0014 054B     		ldr	r3, .L48+8
 922 0016 0122     		movs	r2, #1
 923 0018 1A70     		strb	r2, [r3]
 288:Core/Src/main.c ****   /* USER CODE BEGIN EXTI0_IRQn 1 */
 924              		.loc 1 288 3 is_stmt 1 view .LVU261
 925 001a 0220     		movs	r0, #2
 926 001c FFF7FEFF 		bl	HAL_GPIO_EXTI_IRQHandler
 927              	.LVL43:
 292:Core/Src/main.c **** /* USER CODE END 0 */
 928              		.loc 1 292 1 is_stmt 0 view .LVU262
 929 0020 08BD     		pop	{r3, pc}
 930              	.L49:
 931 0022 00BF     		.align	2
 932              	.L48:
 933 0024 00000000 		.word	.LANCHOR20
 934 0028 00100140 		.word	1073811456
 935 002c 00000000 		.word	.LANCHOR22
 936              		.cfi_endproc
 937              	.LFE73:
 939              		.section	.text.DS18B20_LibInit,"ax",%progbits
ARM GAS  C:\Users\user\AppData\Local\Temp\ccPopRei.s 			page 34


 940              		.align	1
 941              		.global	DS18B20_LibInit
 942              		.syntax unified
 943              		.thumb
 944              		.thumb_func
 945              		.fpu softvfp
 947              	DS18B20_LibInit:
 948              	.LFB74:
 296:Core/Src/main.c ****   OW_Begin(&ow, &huart2);
 949              		.loc 1 296 1 is_stmt 1 view -0
 950              		.cfi_startproc
 951              		@ args = 0, pretend = 0, frame = 8
 952              		@ frame_needed = 0, uses_anonymous_args = 0
 953 0000 30B5     		push	{r4, r5, lr}
 954              		.cfi_def_cfa_offset 12
 955              		.cfi_offset 4, -12
 956              		.cfi_offset 5, -8
 957              		.cfi_offset 14, -4
 958 0002 83B0     		sub	sp, sp, #12
 959              		.cfi_def_cfa_offset 24
 297:Core/Src/main.c **** 
 960              		.loc 1 297 3 view .LVU264
 961 0004 0B4D     		ldr	r5, .L52
 962 0006 0C49     		ldr	r1, .L52+4
 963 0008 2846     		mov	r0, r5
 964 000a FFF7FEFF 		bl	OW_Begin
 965              	.LVL44:
 299:Core/Src/main.c ****   {
 966              		.loc 1 299 3 view .LVU265
 299:Core/Src/main.c ****   {
 967              		.loc 1 299 6 is_stmt 0 view .LVU266
 968 000e 2846     		mov	r0, r5
 969 0010 FFF7FEFF 		bl	OW_Reset
 970              	.LVL45:
 306:Core/Src/main.c **** 
 971              		.loc 1 306 3 is_stmt 1 view .LVU267
 308:Core/Src/main.c **** 
 972              		.loc 1 308 3 view .LVU268
 973 0014 094C     		ldr	r4, .L52+8
 974 0016 2946     		mov	r1, r5
 975 0018 2046     		mov	r0, r4
 976 001a FFF7FEFF 		bl	DT_SetOneWire
 977              	.LVL46:
 311:Core/Src/main.c **** 
 978              		.loc 1 311 3 view .LVU269
 314:Core/Src/main.c **** 
 979              		.loc 1 314 3 view .LVU270
 980 001e 2046     		mov	r0, r4
 981 0020 FFF7FEFF 		bl	DT_Begin
 982              	.LVL47:
 317:Core/Src/main.c **** }
 983              		.loc 1 317 3 view .LVU271
 984 0024 0123     		movs	r3, #1
 985 0026 0C22     		movs	r2, #12
 986 0028 6946     		mov	r1, sp
 987 002a 2046     		mov	r0, r4
 988 002c FFF7FEFF 		bl	DT_SetResolution
ARM GAS  C:\Users\user\AppData\Local\Temp\ccPopRei.s 			page 35


 989              	.LVL48:
 318:Core/Src/main.c **** /**
 990              		.loc 1 318 1 is_stmt 0 view .LVU272
 991 0030 03B0     		add	sp, sp, #12
 992              		.cfi_def_cfa_offset 12
 993              		@ sp needed
 994 0032 30BD     		pop	{r4, r5, pc}
 995              	.L53:
 996              		.align	2
 997              	.L52:
 998 0034 00000000 		.word	.LANCHOR25
 999 0038 00000000 		.word	.LANCHOR24
 1000 003c 00000000 		.word	.LANCHOR26
 1001              		.cfi_endproc
 1002              	.LFE74:
 1004              		.section	.text.Error_Handler,"ax",%progbits
 1005              		.align	1
 1006              		.global	Error_Handler
 1007              		.syntax unified
 1008              		.thumb
 1009              		.thumb_func
 1010              		.fpu softvfp
 1012              	Error_Handler:
 1013              	.LFB82:
 764:Core/Src/main.c **** 
 765:Core/Src/main.c **** /* USER CODE BEGIN 4 */
 766:Core/Src/main.c **** 
 767:Core/Src/main.c **** /* USER CODE END 4 */
 768:Core/Src/main.c **** 
 769:Core/Src/main.c **** /**
 770:Core/Src/main.c ****   * @brief  This function is executed in case of error occurrence.
 771:Core/Src/main.c ****   * @retval None
 772:Core/Src/main.c ****   */
 773:Core/Src/main.c **** void Error_Handler(void)
 774:Core/Src/main.c **** {
 1014              		.loc 1 774 1 is_stmt 1 view -0
 1015              		.cfi_startproc
 1016              		@ Volatile: function does not return.
 1017              		@ args = 0, pretend = 0, frame = 0
 1018              		@ frame_needed = 0, uses_anonymous_args = 0
 1019              		@ link register save eliminated.
 775:Core/Src/main.c ****   /* USER CODE BEGIN Error_Handler_Debug */
 776:Core/Src/main.c ****   /* User can add his own implementation to report the HAL error return state */
 777:Core/Src/main.c ****   __disable_irq();
 1020              		.loc 1 777 3 view .LVU274
 1021              	.LBB12:
 1022              	.LBI12:
 1023              		.file 2 "Drivers/CMSIS/Include/cmsis_gcc.h"
   1:Drivers/CMSIS/Include/cmsis_gcc.h **** /**************************************************************************//**
   2:Drivers/CMSIS/Include/cmsis_gcc.h ****  * @file     cmsis_gcc.h
   3:Drivers/CMSIS/Include/cmsis_gcc.h ****  * @brief    CMSIS compiler GCC header file
   4:Drivers/CMSIS/Include/cmsis_gcc.h ****  * @version  V5.0.4
   5:Drivers/CMSIS/Include/cmsis_gcc.h ****  * @date     09. April 2018
   6:Drivers/CMSIS/Include/cmsis_gcc.h ****  ******************************************************************************/
   7:Drivers/CMSIS/Include/cmsis_gcc.h **** /*
   8:Drivers/CMSIS/Include/cmsis_gcc.h ****  * Copyright (c) 2009-2018 Arm Limited. All rights reserved.
   9:Drivers/CMSIS/Include/cmsis_gcc.h ****  *
ARM GAS  C:\Users\user\AppData\Local\Temp\ccPopRei.s 			page 36


  10:Drivers/CMSIS/Include/cmsis_gcc.h ****  * SPDX-License-Identifier: Apache-2.0
  11:Drivers/CMSIS/Include/cmsis_gcc.h ****  *
  12:Drivers/CMSIS/Include/cmsis_gcc.h ****  * Licensed under the Apache License, Version 2.0 (the License); you may
  13:Drivers/CMSIS/Include/cmsis_gcc.h ****  * not use this file except in compliance with the License.
  14:Drivers/CMSIS/Include/cmsis_gcc.h ****  * You may obtain a copy of the License at
  15:Drivers/CMSIS/Include/cmsis_gcc.h ****  *
  16:Drivers/CMSIS/Include/cmsis_gcc.h ****  * www.apache.org/licenses/LICENSE-2.0
  17:Drivers/CMSIS/Include/cmsis_gcc.h ****  *
  18:Drivers/CMSIS/Include/cmsis_gcc.h ****  * Unless required by applicable law or agreed to in writing, software
  19:Drivers/CMSIS/Include/cmsis_gcc.h ****  * distributed under the License is distributed on an AS IS BASIS, WITHOUT
  20:Drivers/CMSIS/Include/cmsis_gcc.h ****  * WARRANTIES OR CONDITIONS OF ANY KIND, either express or implied.
  21:Drivers/CMSIS/Include/cmsis_gcc.h ****  * See the License for the specific language governing permissions and
  22:Drivers/CMSIS/Include/cmsis_gcc.h ****  * limitations under the License.
  23:Drivers/CMSIS/Include/cmsis_gcc.h ****  */
  24:Drivers/CMSIS/Include/cmsis_gcc.h **** 
  25:Drivers/CMSIS/Include/cmsis_gcc.h **** #ifndef __CMSIS_GCC_H
  26:Drivers/CMSIS/Include/cmsis_gcc.h **** #define __CMSIS_GCC_H
  27:Drivers/CMSIS/Include/cmsis_gcc.h **** 
  28:Drivers/CMSIS/Include/cmsis_gcc.h **** /* ignore some GCC warnings */
  29:Drivers/CMSIS/Include/cmsis_gcc.h **** #pragma GCC diagnostic push
  30:Drivers/CMSIS/Include/cmsis_gcc.h **** #pragma GCC diagnostic ignored "-Wsign-conversion"
  31:Drivers/CMSIS/Include/cmsis_gcc.h **** #pragma GCC diagnostic ignored "-Wconversion"
  32:Drivers/CMSIS/Include/cmsis_gcc.h **** #pragma GCC diagnostic ignored "-Wunused-parameter"
  33:Drivers/CMSIS/Include/cmsis_gcc.h **** 
  34:Drivers/CMSIS/Include/cmsis_gcc.h **** /* Fallback for __has_builtin */
  35:Drivers/CMSIS/Include/cmsis_gcc.h **** #ifndef __has_builtin
  36:Drivers/CMSIS/Include/cmsis_gcc.h ****   #define __has_builtin(x) (0)
  37:Drivers/CMSIS/Include/cmsis_gcc.h **** #endif
  38:Drivers/CMSIS/Include/cmsis_gcc.h **** 
  39:Drivers/CMSIS/Include/cmsis_gcc.h **** /* CMSIS compiler specific defines */
  40:Drivers/CMSIS/Include/cmsis_gcc.h **** #ifndef   __ASM
  41:Drivers/CMSIS/Include/cmsis_gcc.h ****   #define __ASM                                  __asm
  42:Drivers/CMSIS/Include/cmsis_gcc.h **** #endif
  43:Drivers/CMSIS/Include/cmsis_gcc.h **** #ifndef   __INLINE
  44:Drivers/CMSIS/Include/cmsis_gcc.h ****   #define __INLINE                               inline
  45:Drivers/CMSIS/Include/cmsis_gcc.h **** #endif
  46:Drivers/CMSIS/Include/cmsis_gcc.h **** #ifndef   __STATIC_INLINE
  47:Drivers/CMSIS/Include/cmsis_gcc.h ****   #define __STATIC_INLINE                        static inline
  48:Drivers/CMSIS/Include/cmsis_gcc.h **** #endif
  49:Drivers/CMSIS/Include/cmsis_gcc.h **** #ifndef   __STATIC_FORCEINLINE                 
  50:Drivers/CMSIS/Include/cmsis_gcc.h ****   #define __STATIC_FORCEINLINE                   __attribute__((always_inline)) static inline
  51:Drivers/CMSIS/Include/cmsis_gcc.h **** #endif                                           
  52:Drivers/CMSIS/Include/cmsis_gcc.h **** #ifndef   __NO_RETURN
  53:Drivers/CMSIS/Include/cmsis_gcc.h ****   #define __NO_RETURN                            __attribute__((__noreturn__))
  54:Drivers/CMSIS/Include/cmsis_gcc.h **** #endif
  55:Drivers/CMSIS/Include/cmsis_gcc.h **** #ifndef   __USED
  56:Drivers/CMSIS/Include/cmsis_gcc.h ****   #define __USED                                 __attribute__((used))
  57:Drivers/CMSIS/Include/cmsis_gcc.h **** #endif
  58:Drivers/CMSIS/Include/cmsis_gcc.h **** #ifndef   __WEAK
  59:Drivers/CMSIS/Include/cmsis_gcc.h ****   #define __WEAK                                 __attribute__((weak))
  60:Drivers/CMSIS/Include/cmsis_gcc.h **** #endif
  61:Drivers/CMSIS/Include/cmsis_gcc.h **** #ifndef   __PACKED
  62:Drivers/CMSIS/Include/cmsis_gcc.h ****   #define __PACKED                               __attribute__((packed, aligned(1)))
  63:Drivers/CMSIS/Include/cmsis_gcc.h **** #endif
  64:Drivers/CMSIS/Include/cmsis_gcc.h **** #ifndef   __PACKED_STRUCT
  65:Drivers/CMSIS/Include/cmsis_gcc.h ****   #define __PACKED_STRUCT                        struct __attribute__((packed, aligned(1)))
  66:Drivers/CMSIS/Include/cmsis_gcc.h **** #endif
ARM GAS  C:\Users\user\AppData\Local\Temp\ccPopRei.s 			page 37


  67:Drivers/CMSIS/Include/cmsis_gcc.h **** #ifndef   __PACKED_UNION
  68:Drivers/CMSIS/Include/cmsis_gcc.h ****   #define __PACKED_UNION                         union __attribute__((packed, aligned(1)))
  69:Drivers/CMSIS/Include/cmsis_gcc.h **** #endif
  70:Drivers/CMSIS/Include/cmsis_gcc.h **** #ifndef   __UNALIGNED_UINT32        /* deprecated */
  71:Drivers/CMSIS/Include/cmsis_gcc.h ****   #pragma GCC diagnostic push
  72:Drivers/CMSIS/Include/cmsis_gcc.h ****   #pragma GCC diagnostic ignored "-Wpacked"
  73:Drivers/CMSIS/Include/cmsis_gcc.h ****   #pragma GCC diagnostic ignored "-Wattributes"
  74:Drivers/CMSIS/Include/cmsis_gcc.h ****   struct __attribute__((packed)) T_UINT32 { uint32_t v; };
  75:Drivers/CMSIS/Include/cmsis_gcc.h ****   #pragma GCC diagnostic pop
  76:Drivers/CMSIS/Include/cmsis_gcc.h ****   #define __UNALIGNED_UINT32(x)                  (((struct T_UINT32 *)(x))->v)
  77:Drivers/CMSIS/Include/cmsis_gcc.h **** #endif
  78:Drivers/CMSIS/Include/cmsis_gcc.h **** #ifndef   __UNALIGNED_UINT16_WRITE
  79:Drivers/CMSIS/Include/cmsis_gcc.h ****   #pragma GCC diagnostic push
  80:Drivers/CMSIS/Include/cmsis_gcc.h ****   #pragma GCC diagnostic ignored "-Wpacked"
  81:Drivers/CMSIS/Include/cmsis_gcc.h ****   #pragma GCC diagnostic ignored "-Wattributes"
  82:Drivers/CMSIS/Include/cmsis_gcc.h ****   __PACKED_STRUCT T_UINT16_WRITE { uint16_t v; };
  83:Drivers/CMSIS/Include/cmsis_gcc.h ****   #pragma GCC diagnostic pop
  84:Drivers/CMSIS/Include/cmsis_gcc.h ****   #define __UNALIGNED_UINT16_WRITE(addr, val)    (void)((((struct T_UINT16_WRITE *)(void *)(addr))-
  85:Drivers/CMSIS/Include/cmsis_gcc.h **** #endif
  86:Drivers/CMSIS/Include/cmsis_gcc.h **** #ifndef   __UNALIGNED_UINT16_READ
  87:Drivers/CMSIS/Include/cmsis_gcc.h ****   #pragma GCC diagnostic push
  88:Drivers/CMSIS/Include/cmsis_gcc.h ****   #pragma GCC diagnostic ignored "-Wpacked"
  89:Drivers/CMSIS/Include/cmsis_gcc.h ****   #pragma GCC diagnostic ignored "-Wattributes"
  90:Drivers/CMSIS/Include/cmsis_gcc.h ****   __PACKED_STRUCT T_UINT16_READ { uint16_t v; };
  91:Drivers/CMSIS/Include/cmsis_gcc.h ****   #pragma GCC diagnostic pop
  92:Drivers/CMSIS/Include/cmsis_gcc.h ****   #define __UNALIGNED_UINT16_READ(addr)          (((const struct T_UINT16_READ *)(const void *)(add
  93:Drivers/CMSIS/Include/cmsis_gcc.h **** #endif
  94:Drivers/CMSIS/Include/cmsis_gcc.h **** #ifndef   __UNALIGNED_UINT32_WRITE
  95:Drivers/CMSIS/Include/cmsis_gcc.h ****   #pragma GCC diagnostic push
  96:Drivers/CMSIS/Include/cmsis_gcc.h ****   #pragma GCC diagnostic ignored "-Wpacked"
  97:Drivers/CMSIS/Include/cmsis_gcc.h ****   #pragma GCC diagnostic ignored "-Wattributes"
  98:Drivers/CMSIS/Include/cmsis_gcc.h ****   __PACKED_STRUCT T_UINT32_WRITE { uint32_t v; };
  99:Drivers/CMSIS/Include/cmsis_gcc.h ****   #pragma GCC diagnostic pop
 100:Drivers/CMSIS/Include/cmsis_gcc.h ****   #define __UNALIGNED_UINT32_WRITE(addr, val)    (void)((((struct T_UINT32_WRITE *)(void *)(addr))-
 101:Drivers/CMSIS/Include/cmsis_gcc.h **** #endif
 102:Drivers/CMSIS/Include/cmsis_gcc.h **** #ifndef   __UNALIGNED_UINT32_READ
 103:Drivers/CMSIS/Include/cmsis_gcc.h ****   #pragma GCC diagnostic push
 104:Drivers/CMSIS/Include/cmsis_gcc.h ****   #pragma GCC diagnostic ignored "-Wpacked"
 105:Drivers/CMSIS/Include/cmsis_gcc.h ****   #pragma GCC diagnostic ignored "-Wattributes"
 106:Drivers/CMSIS/Include/cmsis_gcc.h ****   __PACKED_STRUCT T_UINT32_READ { uint32_t v; };
 107:Drivers/CMSIS/Include/cmsis_gcc.h ****   #pragma GCC diagnostic pop
 108:Drivers/CMSIS/Include/cmsis_gcc.h ****   #define __UNALIGNED_UINT32_READ(addr)          (((const struct T_UINT32_READ *)(const void *)(add
 109:Drivers/CMSIS/Include/cmsis_gcc.h **** #endif
 110:Drivers/CMSIS/Include/cmsis_gcc.h **** #ifndef   __ALIGNED
 111:Drivers/CMSIS/Include/cmsis_gcc.h ****   #define __ALIGNED(x)                           __attribute__((aligned(x)))
 112:Drivers/CMSIS/Include/cmsis_gcc.h **** #endif
 113:Drivers/CMSIS/Include/cmsis_gcc.h **** #ifndef   __RESTRICT
 114:Drivers/CMSIS/Include/cmsis_gcc.h ****   #define __RESTRICT                             __restrict
 115:Drivers/CMSIS/Include/cmsis_gcc.h **** #endif
 116:Drivers/CMSIS/Include/cmsis_gcc.h **** 
 117:Drivers/CMSIS/Include/cmsis_gcc.h **** 
 118:Drivers/CMSIS/Include/cmsis_gcc.h **** /* ###########################  Core Function Access  ########################### */
 119:Drivers/CMSIS/Include/cmsis_gcc.h **** /** \ingroup  CMSIS_Core_FunctionInterface
 120:Drivers/CMSIS/Include/cmsis_gcc.h ****     \defgroup CMSIS_Core_RegAccFunctions CMSIS Core Register Access Functions
 121:Drivers/CMSIS/Include/cmsis_gcc.h ****   @{
 122:Drivers/CMSIS/Include/cmsis_gcc.h ****  */
 123:Drivers/CMSIS/Include/cmsis_gcc.h **** 
ARM GAS  C:\Users\user\AppData\Local\Temp\ccPopRei.s 			page 38


 124:Drivers/CMSIS/Include/cmsis_gcc.h **** /**
 125:Drivers/CMSIS/Include/cmsis_gcc.h ****   \brief   Enable IRQ Interrupts
 126:Drivers/CMSIS/Include/cmsis_gcc.h ****   \details Enables IRQ interrupts by clearing the I-bit in the CPSR.
 127:Drivers/CMSIS/Include/cmsis_gcc.h ****            Can only be executed in Privileged modes.
 128:Drivers/CMSIS/Include/cmsis_gcc.h ****  */
 129:Drivers/CMSIS/Include/cmsis_gcc.h **** __STATIC_FORCEINLINE void __enable_irq(void)
 130:Drivers/CMSIS/Include/cmsis_gcc.h **** {
 131:Drivers/CMSIS/Include/cmsis_gcc.h ****   __ASM volatile ("cpsie i" : : : "memory");
 132:Drivers/CMSIS/Include/cmsis_gcc.h **** }
 133:Drivers/CMSIS/Include/cmsis_gcc.h **** 
 134:Drivers/CMSIS/Include/cmsis_gcc.h **** 
 135:Drivers/CMSIS/Include/cmsis_gcc.h **** /**
 136:Drivers/CMSIS/Include/cmsis_gcc.h ****   \brief   Disable IRQ Interrupts
 137:Drivers/CMSIS/Include/cmsis_gcc.h ****   \details Disables IRQ interrupts by setting the I-bit in the CPSR.
 138:Drivers/CMSIS/Include/cmsis_gcc.h ****            Can only be executed in Privileged modes.
 139:Drivers/CMSIS/Include/cmsis_gcc.h ****  */
 140:Drivers/CMSIS/Include/cmsis_gcc.h **** __STATIC_FORCEINLINE void __disable_irq(void)
 1024              		.loc 2 140 27 view .LVU275
 1025              	.LBB13:
 141:Drivers/CMSIS/Include/cmsis_gcc.h **** {
 142:Drivers/CMSIS/Include/cmsis_gcc.h ****   __ASM volatile ("cpsid i" : : : "memory");
 1026              		.loc 2 142 3 view .LVU276
 1027              		.syntax unified
 1028              	@ 142 "Drivers/CMSIS/Include/cmsis_gcc.h" 1
 1029 0000 72B6     		cpsid i
 1030              	@ 0 "" 2
 1031              		.thumb
 1032              		.syntax unified
 1033              	.L55:
 1034              	.LBE13:
 1035              	.LBE12:
 778:Core/Src/main.c ****   while (1)
 1036              		.loc 1 778 3 discriminator 1 view .LVU277
 779:Core/Src/main.c ****   {
 780:Core/Src/main.c ****   }
 1037              		.loc 1 780 3 discriminator 1 view .LVU278
 778:Core/Src/main.c ****   while (1)
 1038              		.loc 1 778 9 discriminator 1 view .LVU279
 1039 0002 FEE7     		b	.L55
 1040              		.cfi_endproc
 1041              	.LFE82:
 1043              		.section	.text.MX_ADC1_Init,"ax",%progbits
 1044              		.align	1
 1045              		.syntax unified
 1046              		.thumb
 1047              		.thumb_func
 1048              		.fpu softvfp
 1050              	MX_ADC1_Init:
 1051              	.LFB77:
 569:Core/Src/main.c **** 
 1052              		.loc 1 569 1 view -0
 1053              		.cfi_startproc
 1054              		@ args = 0, pretend = 0, frame = 16
 1055              		@ frame_needed = 0, uses_anonymous_args = 0
 1056 0000 00B5     		push	{lr}
 1057              		.cfi_def_cfa_offset 4
 1058              		.cfi_offset 14, -4
ARM GAS  C:\Users\user\AppData\Local\Temp\ccPopRei.s 			page 39


 1059 0002 85B0     		sub	sp, sp, #20
 1060              		.cfi_def_cfa_offset 24
 575:Core/Src/main.c **** 
 1061              		.loc 1 575 3 view .LVU281
 575:Core/Src/main.c **** 
 1062              		.loc 1 575 26 is_stmt 0 view .LVU282
 1063 0004 0023     		movs	r3, #0
 1064 0006 0193     		str	r3, [sp, #4]
 1065 0008 0293     		str	r3, [sp, #8]
 1066 000a 0393     		str	r3, [sp, #12]
 582:Core/Src/main.c ****   hadc1.Init.ScanConvMode = ADC_SCAN_DISABLE;
 1067              		.loc 1 582 3 is_stmt 1 view .LVU283
 582:Core/Src/main.c ****   hadc1.Init.ScanConvMode = ADC_SCAN_DISABLE;
 1068              		.loc 1 582 18 is_stmt 0 view .LVU284
 1069 000c 1048     		ldr	r0, .L62
 1070 000e 114A     		ldr	r2, .L62+4
 1071 0010 0260     		str	r2, [r0]
 583:Core/Src/main.c ****   hadc1.Init.ContinuousConvMode = DISABLE;
 1072              		.loc 1 583 3 is_stmt 1 view .LVU285
 583:Core/Src/main.c ****   hadc1.Init.ContinuousConvMode = DISABLE;
 1073              		.loc 1 583 27 is_stmt 0 view .LVU286
 1074 0012 8360     		str	r3, [r0, #8]
 584:Core/Src/main.c ****   hadc1.Init.DiscontinuousConvMode = DISABLE;
 1075              		.loc 1 584 3 is_stmt 1 view .LVU287
 584:Core/Src/main.c ****   hadc1.Init.DiscontinuousConvMode = DISABLE;
 1076              		.loc 1 584 33 is_stmt 0 view .LVU288
 1077 0014 0373     		strb	r3, [r0, #12]
 585:Core/Src/main.c ****   hadc1.Init.ExternalTrigConv = ADC_SOFTWARE_START;
 1078              		.loc 1 585 3 is_stmt 1 view .LVU289
 585:Core/Src/main.c ****   hadc1.Init.ExternalTrigConv = ADC_SOFTWARE_START;
 1079              		.loc 1 585 36 is_stmt 0 view .LVU290
 1080 0016 0375     		strb	r3, [r0, #20]
 586:Core/Src/main.c ****   hadc1.Init.DataAlign = ADC_DATAALIGN_RIGHT;
 1081              		.loc 1 586 3 is_stmt 1 view .LVU291
 586:Core/Src/main.c ****   hadc1.Init.DataAlign = ADC_DATAALIGN_RIGHT;
 1082              		.loc 1 586 31 is_stmt 0 view .LVU292
 1083 0018 4FF46022 		mov	r2, #917504
 1084 001c C261     		str	r2, [r0, #28]
 587:Core/Src/main.c ****   hadc1.Init.NbrOfConversion = 1;
 1085              		.loc 1 587 3 is_stmt 1 view .LVU293
 587:Core/Src/main.c ****   hadc1.Init.NbrOfConversion = 1;
 1086              		.loc 1 587 24 is_stmt 0 view .LVU294
 1087 001e 4360     		str	r3, [r0, #4]
 588:Core/Src/main.c ****   if (HAL_ADC_Init(&hadc1) != HAL_OK)
 1088              		.loc 1 588 3 is_stmt 1 view .LVU295
 588:Core/Src/main.c ****   if (HAL_ADC_Init(&hadc1) != HAL_OK)
 1089              		.loc 1 588 30 is_stmt 0 view .LVU296
 1090 0020 0123     		movs	r3, #1
 1091 0022 0361     		str	r3, [r0, #16]
 589:Core/Src/main.c ****   {
 1092              		.loc 1 589 3 is_stmt 1 view .LVU297
 589:Core/Src/main.c ****   {
 1093              		.loc 1 589 7 is_stmt 0 view .LVU298
 1094 0024 FFF7FEFF 		bl	HAL_ADC_Init
 1095              	.LVL49:
 589:Core/Src/main.c ****   {
 1096              		.loc 1 589 6 view .LVU299
ARM GAS  C:\Users\user\AppData\Local\Temp\ccPopRei.s 			page 40


 1097 0028 68B9     		cbnz	r0, .L60
 595:Core/Src/main.c ****   sConfig.Rank = ADC_REGULAR_RANK_1;
 1098              		.loc 1 595 3 is_stmt 1 view .LVU300
 595:Core/Src/main.c ****   sConfig.Rank = ADC_REGULAR_RANK_1;
 1099              		.loc 1 595 19 is_stmt 0 view .LVU301
 1100 002a 0723     		movs	r3, #7
 1101 002c 0193     		str	r3, [sp, #4]
 596:Core/Src/main.c ****   sConfig.SamplingTime = ADC_SAMPLETIME_1CYCLE_5;
 1102              		.loc 1 596 3 is_stmt 1 view .LVU302
 596:Core/Src/main.c ****   sConfig.SamplingTime = ADC_SAMPLETIME_1CYCLE_5;
 1103              		.loc 1 596 16 is_stmt 0 view .LVU303
 1104 002e 0123     		movs	r3, #1
 1105 0030 0293     		str	r3, [sp, #8]
 597:Core/Src/main.c ****   if (HAL_ADC_ConfigChannel(&hadc1, &sConfig) != HAL_OK)
 1106              		.loc 1 597 3 is_stmt 1 view .LVU304
 597:Core/Src/main.c ****   if (HAL_ADC_ConfigChannel(&hadc1, &sConfig) != HAL_OK)
 1107              		.loc 1 597 24 is_stmt 0 view .LVU305
 1108 0032 0023     		movs	r3, #0
 1109 0034 0393     		str	r3, [sp, #12]
 598:Core/Src/main.c ****   {
 1110              		.loc 1 598 3 is_stmt 1 view .LVU306
 598:Core/Src/main.c ****   {
 1111              		.loc 1 598 7 is_stmt 0 view .LVU307
 1112 0036 01A9     		add	r1, sp, #4
 1113 0038 0548     		ldr	r0, .L62
 1114 003a FFF7FEFF 		bl	HAL_ADC_ConfigChannel
 1115              	.LVL50:
 598:Core/Src/main.c ****   {
 1116              		.loc 1 598 6 view .LVU308
 1117 003e 20B9     		cbnz	r0, .L61
 606:Core/Src/main.c **** 
 1118              		.loc 1 606 1 view .LVU309
 1119 0040 05B0     		add	sp, sp, #20
 1120              		.cfi_remember_state
 1121              		.cfi_def_cfa_offset 4
 1122              		@ sp needed
 1123 0042 5DF804FB 		ldr	pc, [sp], #4
 1124              	.L60:
 1125              		.cfi_restore_state
 591:Core/Src/main.c ****   }
 1126              		.loc 1 591 5 is_stmt 1 view .LVU310
 1127 0046 FFF7FEFF 		bl	Error_Handler
 1128              	.LVL51:
 1129              	.L61:
 600:Core/Src/main.c ****   }
 1130              		.loc 1 600 5 view .LVU311
 1131 004a FFF7FEFF 		bl	Error_Handler
 1132              	.LVL52:
 1133              	.L63:
 1134 004e 00BF     		.align	2
 1135              	.L62:
 1136 0050 00000000 		.word	.LANCHOR27
 1137 0054 00240140 		.word	1073816576
 1138              		.cfi_endproc
 1139              	.LFE77:
 1141              		.section	.text.MX_USART1_UART_Init,"ax",%progbits
 1142              		.align	1
ARM GAS  C:\Users\user\AppData\Local\Temp\ccPopRei.s 			page 41


 1143              		.syntax unified
 1144              		.thumb
 1145              		.thumb_func
 1146              		.fpu softvfp
 1148              	MX_USART1_UART_Init:
 1149              	.LFB79:
 642:Core/Src/main.c **** 
 1150              		.loc 1 642 1 view -0
 1151              		.cfi_startproc
 1152              		@ args = 0, pretend = 0, frame = 0
 1153              		@ frame_needed = 0, uses_anonymous_args = 0
 1154 0000 08B5     		push	{r3, lr}
 1155              		.cfi_def_cfa_offset 8
 1156              		.cfi_offset 3, -8
 1157              		.cfi_offset 14, -4
 651:Core/Src/main.c ****   huart1.Init.BaudRate = 57600;
 1158              		.loc 1 651 3 view .LVU313
 651:Core/Src/main.c ****   huart1.Init.BaudRate = 57600;
 1159              		.loc 1 651 19 is_stmt 0 view .LVU314
 1160 0002 0B48     		ldr	r0, .L68
 1161 0004 0B4B     		ldr	r3, .L68+4
 1162 0006 0360     		str	r3, [r0]
 652:Core/Src/main.c ****   huart1.Init.WordLength = UART_WORDLENGTH_8B;
 1163              		.loc 1 652 3 is_stmt 1 view .LVU315
 652:Core/Src/main.c ****   huart1.Init.WordLength = UART_WORDLENGTH_8B;
 1164              		.loc 1 652 24 is_stmt 0 view .LVU316
 1165 0008 4FF46143 		mov	r3, #57600
 1166 000c 4360     		str	r3, [r0, #4]
 653:Core/Src/main.c ****   huart1.Init.StopBits = UART_STOPBITS_2;
 1167              		.loc 1 653 3 is_stmt 1 view .LVU317
 653:Core/Src/main.c ****   huart1.Init.StopBits = UART_STOPBITS_2;
 1168              		.loc 1 653 26 is_stmt 0 view .LVU318
 1169 000e 0023     		movs	r3, #0
 1170 0010 8360     		str	r3, [r0, #8]
 654:Core/Src/main.c ****   huart1.Init.Parity = UART_PARITY_NONE;
 1171              		.loc 1 654 3 is_stmt 1 view .LVU319
 654:Core/Src/main.c ****   huart1.Init.Parity = UART_PARITY_NONE;
 1172              		.loc 1 654 24 is_stmt 0 view .LVU320
 1173 0012 4FF40052 		mov	r2, #8192
 1174 0016 C260     		str	r2, [r0, #12]
 655:Core/Src/main.c ****   huart1.Init.Mode = UART_MODE_TX_RX;
 1175              		.loc 1 655 3 is_stmt 1 view .LVU321
 655:Core/Src/main.c ****   huart1.Init.Mode = UART_MODE_TX_RX;
 1176              		.loc 1 655 22 is_stmt 0 view .LVU322
 1177 0018 0361     		str	r3, [r0, #16]
 656:Core/Src/main.c ****   huart1.Init.HwFlowCtl = UART_HWCONTROL_NONE;
 1178              		.loc 1 656 3 is_stmt 1 view .LVU323
 656:Core/Src/main.c ****   huart1.Init.HwFlowCtl = UART_HWCONTROL_NONE;
 1179              		.loc 1 656 20 is_stmt 0 view .LVU324
 1180 001a 0C22     		movs	r2, #12
 1181 001c 4261     		str	r2, [r0, #20]
 657:Core/Src/main.c ****   huart1.Init.OverSampling = UART_OVERSAMPLING_16;
 1182              		.loc 1 657 3 is_stmt 1 view .LVU325
 657:Core/Src/main.c ****   huart1.Init.OverSampling = UART_OVERSAMPLING_16;
 1183              		.loc 1 657 25 is_stmt 0 view .LVU326
 1184 001e 8361     		str	r3, [r0, #24]
 658:Core/Src/main.c ****   if (HAL_UART_Init(&huart1) != HAL_OK)
ARM GAS  C:\Users\user\AppData\Local\Temp\ccPopRei.s 			page 42


 1185              		.loc 1 658 3 is_stmt 1 view .LVU327
 658:Core/Src/main.c ****   if (HAL_UART_Init(&huart1) != HAL_OK)
 1186              		.loc 1 658 28 is_stmt 0 view .LVU328
 1187 0020 C361     		str	r3, [r0, #28]
 659:Core/Src/main.c ****   {
 1188              		.loc 1 659 3 is_stmt 1 view .LVU329
 659:Core/Src/main.c ****   {
 1189              		.loc 1 659 7 is_stmt 0 view .LVU330
 1190 0022 FFF7FEFF 		bl	HAL_UART_Init
 1191              	.LVL53:
 659:Core/Src/main.c ****   {
 1192              		.loc 1 659 6 view .LVU331
 1193 0026 00B9     		cbnz	r0, .L67
 667:Core/Src/main.c **** 
 1194              		.loc 1 667 1 view .LVU332
 1195 0028 08BD     		pop	{r3, pc}
 1196              	.L67:
 661:Core/Src/main.c ****   }
 1197              		.loc 1 661 5 is_stmt 1 view .LVU333
 1198 002a FFF7FEFF 		bl	Error_Handler
 1199              	.LVL54:
 1200              	.L69:
 1201 002e 00BF     		.align	2
 1202              	.L68:
 1203 0030 00000000 		.word	.LANCHOR8
 1204 0034 00380140 		.word	1073821696
 1205              		.cfi_endproc
 1206              	.LFE79:
 1208              		.section	.text.SystemClock_Config,"ax",%progbits
 1209              		.align	1
 1210              		.global	SystemClock_Config
 1211              		.syntax unified
 1212              		.thumb
 1213              		.thumb_func
 1214              		.fpu softvfp
 1216              	SystemClock_Config:
 1217              	.LFB76:
 523:Core/Src/main.c ****   RCC_OscInitTypeDef RCC_OscInitStruct = {0};
 1218              		.loc 1 523 1 view -0
 1219              		.cfi_startproc
 1220              		@ args = 0, pretend = 0, frame = 80
 1221              		@ frame_needed = 0, uses_anonymous_args = 0
 1222 0000 00B5     		push	{lr}
 1223              		.cfi_def_cfa_offset 4
 1224              		.cfi_offset 14, -4
 1225 0002 95B0     		sub	sp, sp, #84
 1226              		.cfi_def_cfa_offset 88
 524:Core/Src/main.c ****   RCC_ClkInitTypeDef RCC_ClkInitStruct = {0};
 1227              		.loc 1 524 3 view .LVU335
 524:Core/Src/main.c ****   RCC_ClkInitTypeDef RCC_ClkInitStruct = {0};
 1228              		.loc 1 524 22 is_stmt 0 view .LVU336
 1229 0004 2822     		movs	r2, #40
 1230 0006 0021     		movs	r1, #0
 1231 0008 0DEB0200 		add	r0, sp, r2
 1232 000c FFF7FEFF 		bl	memset
 1233              	.LVL55:
 525:Core/Src/main.c ****   RCC_PeriphCLKInitTypeDef PeriphClkInit = {0};
ARM GAS  C:\Users\user\AppData\Local\Temp\ccPopRei.s 			page 43


 1234              		.loc 1 525 3 is_stmt 1 view .LVU337
 525:Core/Src/main.c ****   RCC_PeriphCLKInitTypeDef PeriphClkInit = {0};
 1235              		.loc 1 525 22 is_stmt 0 view .LVU338
 1236 0010 0023     		movs	r3, #0
 1237 0012 0593     		str	r3, [sp, #20]
 1238 0014 0693     		str	r3, [sp, #24]
 1239 0016 0793     		str	r3, [sp, #28]
 1240 0018 0893     		str	r3, [sp, #32]
 1241 001a 0993     		str	r3, [sp, #36]
 526:Core/Src/main.c **** 
 1242              		.loc 1 526 3 is_stmt 1 view .LVU339
 526:Core/Src/main.c **** 
 1243              		.loc 1 526 28 is_stmt 0 view .LVU340
 1244 001c 0193     		str	r3, [sp, #4]
 1245 001e 0293     		str	r3, [sp, #8]
 1246 0020 0393     		str	r3, [sp, #12]
 1247 0022 0493     		str	r3, [sp, #16]
 531:Core/Src/main.c ****   RCC_OscInitStruct.HSIState = RCC_HSI_ON;
 1248              		.loc 1 531 3 is_stmt 1 view .LVU341
 531:Core/Src/main.c ****   RCC_OscInitStruct.HSIState = RCC_HSI_ON;
 1249              		.loc 1 531 36 is_stmt 0 view .LVU342
 1250 0024 0A23     		movs	r3, #10
 1251 0026 0A93     		str	r3, [sp, #40]
 532:Core/Src/main.c ****   RCC_OscInitStruct.HSICalibrationValue = RCC_HSICALIBRATION_DEFAULT;
 1252              		.loc 1 532 3 is_stmt 1 view .LVU343
 532:Core/Src/main.c ****   RCC_OscInitStruct.HSICalibrationValue = RCC_HSICALIBRATION_DEFAULT;
 1253              		.loc 1 532 30 is_stmt 0 view .LVU344
 1254 0028 0123     		movs	r3, #1
 1255 002a 0E93     		str	r3, [sp, #56]
 533:Core/Src/main.c ****   RCC_OscInitStruct.LSIState = RCC_LSI_ON;
 1256              		.loc 1 533 3 is_stmt 1 view .LVU345
 533:Core/Src/main.c ****   RCC_OscInitStruct.LSIState = RCC_LSI_ON;
 1257              		.loc 1 533 41 is_stmt 0 view .LVU346
 1258 002c 1022     		movs	r2, #16
 1259 002e 0F92     		str	r2, [sp, #60]
 534:Core/Src/main.c ****   RCC_OscInitStruct.PLL.PLLState = RCC_PLL_ON;
 1260              		.loc 1 534 3 is_stmt 1 view .LVU347
 534:Core/Src/main.c ****   RCC_OscInitStruct.PLL.PLLState = RCC_PLL_ON;
 1261              		.loc 1 534 30 is_stmt 0 view .LVU348
 1262 0030 1093     		str	r3, [sp, #64]
 535:Core/Src/main.c ****   RCC_OscInitStruct.PLL.PLLSource = RCC_PLLSOURCE_HSI_DIV2;
 1263              		.loc 1 535 3 is_stmt 1 view .LVU349
 535:Core/Src/main.c ****   RCC_OscInitStruct.PLL.PLLSource = RCC_PLLSOURCE_HSI_DIV2;
 1264              		.loc 1 535 34 is_stmt 0 view .LVU350
 1265 0032 0223     		movs	r3, #2
 1266 0034 1193     		str	r3, [sp, #68]
 536:Core/Src/main.c ****   RCC_OscInitStruct.PLL.PLLMUL = RCC_PLL_MUL16;
 1267              		.loc 1 536 3 is_stmt 1 view .LVU351
 537:Core/Src/main.c ****   if (HAL_RCC_OscConfig(&RCC_OscInitStruct) != HAL_OK)
 1268              		.loc 1 537 3 view .LVU352
 537:Core/Src/main.c ****   if (HAL_RCC_OscConfig(&RCC_OscInitStruct) != HAL_OK)
 1269              		.loc 1 537 32 is_stmt 0 view .LVU353
 1270 0036 4FF46013 		mov	r3, #3670016
 1271 003a 1393     		str	r3, [sp, #76]
 538:Core/Src/main.c ****   {
 1272              		.loc 1 538 3 is_stmt 1 view .LVU354
 538:Core/Src/main.c ****   {
ARM GAS  C:\Users\user\AppData\Local\Temp\ccPopRei.s 			page 44


 1273              		.loc 1 538 7 is_stmt 0 view .LVU355
 1274 003c 0AA8     		add	r0, sp, #40
 1275 003e FFF7FEFF 		bl	HAL_RCC_OscConfig
 1276              	.LVL56:
 538:Core/Src/main.c ****   {
 1277              		.loc 1 538 6 view .LVU356
 1278 0042 C8B9     		cbnz	r0, .L75
 544:Core/Src/main.c ****                               |RCC_CLOCKTYPE_PCLK1|RCC_CLOCKTYPE_PCLK2;
 1279              		.loc 1 544 3 is_stmt 1 view .LVU357
 544:Core/Src/main.c ****                               |RCC_CLOCKTYPE_PCLK1|RCC_CLOCKTYPE_PCLK2;
 1280              		.loc 1 544 31 is_stmt 0 view .LVU358
 1281 0044 0F23     		movs	r3, #15
 1282 0046 0593     		str	r3, [sp, #20]
 546:Core/Src/main.c ****   RCC_ClkInitStruct.AHBCLKDivider = RCC_SYSCLK_DIV1;
 1283              		.loc 1 546 3 is_stmt 1 view .LVU359
 546:Core/Src/main.c ****   RCC_ClkInitStruct.AHBCLKDivider = RCC_SYSCLK_DIV1;
 1284              		.loc 1 546 34 is_stmt 0 view .LVU360
 1285 0048 0221     		movs	r1, #2
 1286 004a 0691     		str	r1, [sp, #24]
 547:Core/Src/main.c ****   RCC_ClkInitStruct.APB1CLKDivider = RCC_HCLK_DIV2;
 1287              		.loc 1 547 3 is_stmt 1 view .LVU361
 547:Core/Src/main.c ****   RCC_ClkInitStruct.APB1CLKDivider = RCC_HCLK_DIV2;
 1288              		.loc 1 547 35 is_stmt 0 view .LVU362
 1289 004c 0023     		movs	r3, #0
 1290 004e 0793     		str	r3, [sp, #28]
 548:Core/Src/main.c ****   RCC_ClkInitStruct.APB2CLKDivider = RCC_HCLK_DIV1;
 1291              		.loc 1 548 3 is_stmt 1 view .LVU363
 548:Core/Src/main.c ****   RCC_ClkInitStruct.APB2CLKDivider = RCC_HCLK_DIV1;
 1292              		.loc 1 548 36 is_stmt 0 view .LVU364
 1293 0050 4FF48062 		mov	r2, #1024
 1294 0054 0892     		str	r2, [sp, #32]
 549:Core/Src/main.c **** 
 1295              		.loc 1 549 3 is_stmt 1 view .LVU365
 549:Core/Src/main.c **** 
 1296              		.loc 1 549 36 is_stmt 0 view .LVU366
 1297 0056 0993     		str	r3, [sp, #36]
 551:Core/Src/main.c ****   {
 1298              		.loc 1 551 3 is_stmt 1 view .LVU367
 551:Core/Src/main.c ****   {
 1299              		.loc 1 551 7 is_stmt 0 view .LVU368
 1300 0058 05A8     		add	r0, sp, #20
 1301 005a FFF7FEFF 		bl	HAL_RCC_ClockConfig
 1302              	.LVL57:
 551:Core/Src/main.c ****   {
 1303              		.loc 1 551 6 view .LVU369
 1304 005e 68B9     		cbnz	r0, .L76
 555:Core/Src/main.c ****   PeriphClkInit.AdcClockSelection = RCC_ADCPCLK2_DIV6;
 1305              		.loc 1 555 3 is_stmt 1 view .LVU370
 555:Core/Src/main.c ****   PeriphClkInit.AdcClockSelection = RCC_ADCPCLK2_DIV6;
 1306              		.loc 1 555 38 is_stmt 0 view .LVU371
 1307 0060 0223     		movs	r3, #2
 1308 0062 0193     		str	r3, [sp, #4]
 556:Core/Src/main.c ****   if (HAL_RCCEx_PeriphCLKConfig(&PeriphClkInit) != HAL_OK)
 1309              		.loc 1 556 3 is_stmt 1 view .LVU372
 556:Core/Src/main.c ****   if (HAL_RCCEx_PeriphCLKConfig(&PeriphClkInit) != HAL_OK)
 1310              		.loc 1 556 35 is_stmt 0 view .LVU373
 1311 0064 4FF40043 		mov	r3, #32768
ARM GAS  C:\Users\user\AppData\Local\Temp\ccPopRei.s 			page 45


 1312 0068 0393     		str	r3, [sp, #12]
 557:Core/Src/main.c ****   {
 1313              		.loc 1 557 3 is_stmt 1 view .LVU374
 557:Core/Src/main.c ****   {
 1314              		.loc 1 557 7 is_stmt 0 view .LVU375
 1315 006a 01A8     		add	r0, sp, #4
 1316 006c FFF7FEFF 		bl	HAL_RCCEx_PeriphCLKConfig
 1317              	.LVL58:
 557:Core/Src/main.c ****   {
 1318              		.loc 1 557 6 view .LVU376
 1319 0070 30B9     		cbnz	r0, .L77
 561:Core/Src/main.c **** 
 1320              		.loc 1 561 1 view .LVU377
 1321 0072 15B0     		add	sp, sp, #84
 1322              		.cfi_remember_state
 1323              		.cfi_def_cfa_offset 4
 1324              		@ sp needed
 1325 0074 5DF804FB 		ldr	pc, [sp], #4
 1326              	.L75:
 1327              		.cfi_restore_state
 540:Core/Src/main.c ****   }
 1328              		.loc 1 540 5 is_stmt 1 view .LVU378
 1329 0078 FFF7FEFF 		bl	Error_Handler
 1330              	.LVL59:
 1331              	.L76:
 553:Core/Src/main.c ****   }
 1332              		.loc 1 553 5 view .LVU379
 1333 007c FFF7FEFF 		bl	Error_Handler
 1334              	.LVL60:
 1335              	.L77:
 559:Core/Src/main.c ****   }
 1336              		.loc 1 559 5 view .LVU380
 1337 0080 FFF7FEFF 		bl	Error_Handler
 1338              	.LVL61:
 1339              		.cfi_endproc
 1340              	.LFE76:
 1342              		.global	__aeabi_ui2f
 1343              		.global	__aeabi_fdiv
 1344              		.global	__aeabi_f2uiz
 1345              		.section	.text.main,"ax",%progbits
 1346              		.align	1
 1347              		.global	main
 1348              		.syntax unified
 1349              		.thumb
 1350              		.thumb_func
 1351              		.fpu softvfp
 1353              	main:
 1354              	.LFB75:
 324:Core/Src/main.c ****   /* USER CODE BEGIN 1 */
 1355              		.loc 1 324 1 view -0
 1356              		.cfi_startproc
 1357              		@ args = 0, pretend = 0, frame = 0
 1358              		@ frame_needed = 0, uses_anonymous_args = 0
 1359 0000 F8B5     		push	{r3, r4, r5, r6, r7, lr}
 1360              		.cfi_def_cfa_offset 24
 1361              		.cfi_offset 3, -24
 1362              		.cfi_offset 4, -20
ARM GAS  C:\Users\user\AppData\Local\Temp\ccPopRei.s 			page 46


 1363              		.cfi_offset 5, -16
 1364              		.cfi_offset 6, -12
 1365              		.cfi_offset 7, -8
 1366              		.cfi_offset 14, -4
 332:Core/Src/main.c **** 
 1367              		.loc 1 332 3 view .LVU382
 1368 0002 FFF7FEFF 		bl	HAL_Init
 1369              	.LVL62:
 339:Core/Src/main.c **** 
 1370              		.loc 1 339 3 view .LVU383
 1371 0006 FFF7FEFF 		bl	SystemClock_Config
 1372              	.LVL63:
 346:Core/Src/main.c ****   MX_ADC1_Init();
 1373              		.loc 1 346 3 view .LVU384
 1374 000a FFF7FEFF 		bl	MX_GPIO_Init
 1375              	.LVL64:
 347:Core/Src/main.c ****   MX_USART1_UART_Init();
 1376              		.loc 1 347 3 view .LVU385
 1377 000e FFF7FEFF 		bl	MX_ADC1_Init
 1378              	.LVL65:
 348:Core/Src/main.c ****   //MX_USART2_UART_Init();
 1379              		.loc 1 348 3 view .LVU386
 1380 0012 FFF7FEFF 		bl	MX_USART1_UART_Init
 1381              	.LVL66:
 354:Core/Src/main.c ****   Detector_Init_Param(coef, 0);
 1382              		.loc 1 354 3 view .LVU387
 1383 0016 0024     		movs	r4, #0
 1384 0018 2246     		mov	r2, r4
 1385 001a 3C21     		movs	r1, #60
 1386 001c 8C48     		ldr	r0, .L109
 1387 001e FFF7FEFF 		bl	Stat_Init
 1388              	.LVL67:
 355:Core/Src/main.c ****   HAL_UART_Receive_IT(&huart1,rx_buff,1);
 1389              		.loc 1 355 3 view .LVU388
 1390 0022 2146     		mov	r1, r4
 1391 0024 8B4B     		ldr	r3, .L109+4
 1392 0026 1868     		ldr	r0, [r3]	@ float
 1393 0028 FFF7FEFF 		bl	Detector_Init_Param
 1394              	.LVL68:
 356:Core/Src/main.c ****   HAL_ADC_Start(&hadc1);
 1395              		.loc 1 356 3 view .LVU389
 1396 002c 0122     		movs	r2, #1
 1397 002e 8A49     		ldr	r1, .L109+8
 1398 0030 8A48     		ldr	r0, .L109+12
 1399 0032 FFF7FEFF 		bl	HAL_UART_Receive_IT
 1400              	.LVL69:
 357:Core/Src/main.c ****   //DS18B20_LibInit();
 1401              		.loc 1 357 3 view .LVU390
 1402 0036 8A48     		ldr	r0, .L109+16
 1403 0038 FFF7FEFF 		bl	HAL_ADC_Start
 1404              	.LVL70:
 1405 003c 1CE0     		b	.L81
 1406              	.L80:
 373:Core/Src/main.c ****        uSvValue.data = Detector_GetuZvValue(&stat);
 1407              		.loc 1 373 8 view .LVU391
 1408 003e 894C     		ldr	r4, .L109+20
 1409 0040 2046     		mov	r0, r4
ARM GAS  C:\Users\user\AppData\Local\Temp\ccPopRei.s 			page 47


 1410 0042 FFF7FEFF 		bl	Stat_GetStatus
 1411              	.LVL71:
 374:Core/Src/main.c ****        HAL_ADC_PollForConversion(&hadc1, 10);
 1412              		.loc 1 374 8 view .LVU392
 374:Core/Src/main.c ****        HAL_ADC_PollForConversion(&hadc1, 10);
 1413              		.loc 1 374 24 is_stmt 0 view .LVU393
 1414 0046 2046     		mov	r0, r4
 1415 0048 FFF7FEFF 		bl	Detector_GetuZvValue
 1416              	.LVL72:
 374:Core/Src/main.c ****        HAL_ADC_PollForConversion(&hadc1, 10);
 1417              		.loc 1 374 22 view .LVU394
 1418 004c 864B     		ldr	r3, .L109+24
 1419 004e 1860     		str	r0, [r3]	@ float
 375:Core/Src/main.c ****        voltage = (uint16_t)((float)HAL_ADC_GetValue(&hadc1)/3.1f);
 1420              		.loc 1 375 8 is_stmt 1 view .LVU395
 1421 0050 834C     		ldr	r4, .L109+16
 1422 0052 0A21     		movs	r1, #10
 1423 0054 2046     		mov	r0, r4
 1424 0056 FFF7FEFF 		bl	HAL_ADC_PollForConversion
 1425              	.LVL73:
 376:Core/Src/main.c ****        
 1426              		.loc 1 376 8 view .LVU396
 376:Core/Src/main.c ****        
 1427              		.loc 1 376 36 is_stmt 0 view .LVU397
 1428 005a 2046     		mov	r0, r4
 1429 005c FFF7FEFF 		bl	HAL_ADC_GetValue
 1430              	.LVL74:
 376:Core/Src/main.c ****        
 1431              		.loc 1 376 29 view .LVU398
 1432 0060 FFF7FEFF 		bl	__aeabi_ui2f
 1433              	.LVL75:
 376:Core/Src/main.c ****        
 1434              		.loc 1 376 60 view .LVU399
 1435 0064 8149     		ldr	r1, .L109+28
 1436 0066 FFF7FEFF 		bl	__aeabi_fdiv
 1437              	.LVL76:
 376:Core/Src/main.c ****        
 1438              		.loc 1 376 18 view .LVU400
 1439 006a FFF7FEFF 		bl	__aeabi_f2uiz
 1440              	.LVL77:
 376:Core/Src/main.c ****        
 1441              		.loc 1 376 16 view .LVU401
 1442 006e 804B     		ldr	r3, .L109+32
 1443 0070 1880     		strh	r0, [r3]	@ movhi
 1444              	.L79:
 382:Core/Src/main.c ****     {
 1445              		.loc 1 382 5 is_stmt 1 view .LVU402
 382:Core/Src/main.c ****     {
 1446              		.loc 1 382 8 is_stmt 0 view .LVU403
 1447 0072 804B     		ldr	r3, .L109+36
 1448 0074 1C78     		ldrb	r4, [r3]	@ zero_extendqisi2
 382:Core/Src/main.c ****     {
 1449              		.loc 1 382 7 view .LVU404
 1450 0076 74B9     		cbnz	r4, .L104
 1451              	.L81:
 364:Core/Src/main.c ****   {
 1452              		.loc 1 364 3 is_stmt 1 view .LVU405
ARM GAS  C:\Users\user\AppData\Local\Temp\ccPopRei.s 			page 48


 366:Core/Src/main.c ****     {
 1453              		.loc 1 366 5 view .LVU406
 366:Core/Src/main.c ****     {
 1454              		.loc 1 366 8 is_stmt 0 view .LVU407
 1455 0078 7F4B     		ldr	r3, .L109+40
 1456 007a 1B78     		ldrb	r3, [r3]	@ zero_extendqisi2
 366:Core/Src/main.c ****     {
 1457              		.loc 1 366 7 view .LVU408
 1458 007c 002B     		cmp	r3, #0
 1459 007e F8D0     		beq	.L79
 368:Core/Src/main.c ****       if(debugCount > 1000)
 1460              		.loc 1 368 7 is_stmt 1 view .LVU409
 368:Core/Src/main.c ****       if(debugCount > 1000)
 1461              		.loc 1 368 17 is_stmt 0 view .LVU410
 1462 0080 7E4A     		ldr	r2, .L109+44
 1463 0082 1368     		ldr	r3, [r2]
 1464 0084 0133     		adds	r3, r3, #1
 1465 0086 1360     		str	r3, [r2]
 369:Core/Src/main.c ****       {
 1466              		.loc 1 369 7 is_stmt 1 view .LVU411
 369:Core/Src/main.c ****       {
 1467              		.loc 1 369 9 is_stmt 0 view .LVU412
 1468 0088 B3F57A7F 		cmp	r3, #1000
 1469 008c D7DD     		ble	.L80
 371:Core/Src/main.c ****       }
 1470              		.loc 1 371 9 is_stmt 1 view .LVU413
 371:Core/Src/main.c ****       }
 1471              		.loc 1 371 20 is_stmt 0 view .LVU414
 1472 008e 1346     		mov	r3, r2
 1473 0090 0022     		movs	r2, #0
 1474 0092 1A60     		str	r2, [r3]
 1475 0094 D3E7     		b	.L80
 1476              	.L104:
 1477              	.LBB14:
 384:Core/Src/main.c ****       HAL_GPIO_WritePin(GPIOB,LED_RX_Pin,1);
 1478              		.loc 1 384 7 is_stmt 1 view .LVU415
 1479              	.LVL78:
 385:Core/Src/main.c ****       bool DebugData = false;
 1480              		.loc 1 385 7 view .LVU416
 1481 0096 0122     		movs	r2, #1
 1482 0098 2021     		movs	r1, #32
 1483 009a 7948     		ldr	r0, .L109+48
 1484 009c FFF7FEFF 		bl	HAL_GPIO_WritePin
 1485              	.LVL79:
 386:Core/Src/main.c ****       NOS_ModBus_ParseMasterCommand(&master,&rx_buff,0);
 1486              		.loc 1 386 7 view .LVU417
 387:Core/Src/main.c ****       switch(master.Command)
 1487              		.loc 1 387 7 view .LVU418
 1488 00a0 784D     		ldr	r5, .L109+52
 1489 00a2 0022     		movs	r2, #0
 1490 00a4 6C49     		ldr	r1, .L109+8
 1491 00a6 2846     		mov	r0, r5
 1492 00a8 FFF7FEFF 		bl	NOS_ModBus_ParseMasterCommand
 1493              	.LVL80:
 388:Core/Src/main.c ****       {
 1494              		.loc 1 388 7 view .LVU419
 388:Core/Src/main.c ****       {
ARM GAS  C:\Users\user\AppData\Local\Temp\ccPopRei.s 			page 49


 1495              		.loc 1 388 20 is_stmt 0 view .LVU420
 1496 00ac AB78     		ldrb	r3, [r5, #2]	@ zero_extendqisi2
 388:Core/Src/main.c ****       {
 1497              		.loc 1 388 7 view .LVU421
 1498 00ae 032B     		cmp	r3, #3
 1499 00b0 2AD0     		beq	.L105
 386:Core/Src/main.c ****       NOS_ModBus_ParseMasterCommand(&master,&rx_buff,0);
 1500              		.loc 1 386 12 view .LVU422
 1501 00b2 0025     		movs	r5, #0
 384:Core/Src/main.c ****       HAL_GPIO_WritePin(GPIOB,LED_RX_Pin,1);
 1502              		.loc 1 384 12 view .LVU423
 1503 00b4 2C46     		mov	r4, r5
 1504              	.LVL81:
 1505              	.L82:
 488:Core/Src/main.c **** 
 1506              		.loc 1 488 7 is_stmt 1 view .LVU424
 1507 00b6 0022     		movs	r2, #0
 1508 00b8 2021     		movs	r1, #32
 1509 00ba 7148     		ldr	r0, .L109+48
 1510 00bc FFF7FEFF 		bl	HAL_GPIO_WritePin
 1511              	.LVL82:
 490:Core/Src/main.c ****       {
 1512              		.loc 1 490 7 view .LVU425
 490:Core/Src/main.c ****       {
 1513              		.loc 1 490 9 is_stmt 0 view .LVU426
 1514 00c0 15B9     		cbnz	r5, .L97
 490:Core/Src/main.c ****       {
 1515              		.loc 1 490 21 discriminator 1 view .LVU427
 1516 00c2 002C     		cmp	r4, #0
 1517 00c4 40F0A780 		bne	.L106
 1518              	.L97:
 499:Core/Src/main.c ****       {
 1519              		.loc 1 499 7 is_stmt 1 view .LVU428
 499:Core/Src/main.c ****       {
 1520              		.loc 1 499 9 is_stmt 0 view .LVU429
 1521 00c8 D5B1     		cbz	r5, .L98
 499:Core/Src/main.c ****       {
 1522              		.loc 1 499 20 discriminator 1 view .LVU430
 1523 00ca CCB1     		cbz	r4, .L98
 501:Core/Src/main.c ****             HAL_GPIO_WritePin(GPIOA,GPIO_PIN_8,1);
 1524              		.loc 1 501 13 is_stmt 1 view .LVU431
 1525 00cc 6C4C     		ldr	r4, .L109+48
 1526              	.LVL83:
 501:Core/Src/main.c ****             HAL_GPIO_WritePin(GPIOA,GPIO_PIN_8,1);
 1527              		.loc 1 501 13 is_stmt 0 view .LVU432
 1528 00ce 0122     		movs	r2, #1
 1529 00d0 4021     		movs	r1, #64
 1530 00d2 2046     		mov	r0, r4
 1531 00d4 FFF7FEFF 		bl	HAL_GPIO_WritePin
 1532              	.LVL84:
 502:Core/Src/main.c ****             GM2_SendDebugData();
 1533              		.loc 1 502 13 is_stmt 1 view .LVU433
 1534 00d8 6B4D     		ldr	r5, .L109+56
 1535              	.LVL85:
 502:Core/Src/main.c ****             GM2_SendDebugData();
 1536              		.loc 1 502 13 is_stmt 0 view .LVU434
 1537 00da 0122     		movs	r2, #1
ARM GAS  C:\Users\user\AppData\Local\Temp\ccPopRei.s 			page 50


 1538 00dc 4FF48071 		mov	r1, #256
 1539 00e0 2846     		mov	r0, r5
 1540 00e2 FFF7FEFF 		bl	HAL_GPIO_WritePin
 1541              	.LVL86:
 503:Core/Src/main.c ****             HAL_GPIO_WritePin(GPIOA,GPIO_PIN_8,0);
 1542              		.loc 1 503 13 is_stmt 1 view .LVU435
 1543 00e6 FFF7FEFF 		bl	GM2_SendDebugData
 1544              	.LVL87:
 504:Core/Src/main.c ****             HAL_GPIO_WritePin(GPIOB,LED_TX_Pin,0);
 1545              		.loc 1 504 13 view .LVU436
 1546 00ea 0022     		movs	r2, #0
 1547 00ec 4FF48071 		mov	r1, #256
 1548 00f0 2846     		mov	r0, r5
 1549 00f2 FFF7FEFF 		bl	HAL_GPIO_WritePin
 1550              	.LVL88:
 505:Core/Src/main.c ****             DebugData = false;
 1551              		.loc 1 505 13 view .LVU437
 1552 00f6 0022     		movs	r2, #0
 1553 00f8 4021     		movs	r1, #64
 1554 00fa 2046     		mov	r0, r4
 1555 00fc FFF7FEFF 		bl	HAL_GPIO_WritePin
 1556              	.LVL89:
 506:Core/Src/main.c ****       }  
 1557              		.loc 1 506 13 view .LVU438
 1558              	.L98:
 509:Core/Src/main.c ****     }
 1559              		.loc 1 509 7 view .LVU439
 509:Core/Src/main.c ****     }
 1560              		.loc 1 509 15 is_stmt 0 view .LVU440
 1561 0100 5C4B     		ldr	r3, .L109+36
 1562 0102 0022     		movs	r2, #0
 1563 0104 1A70     		strb	r2, [r3]
 1564 0106 B7E7     		b	.L81
 1565              	.LVL90:
 1566              	.L105:
 391:Core/Src/main.c ****         slave.Command = 0x03;
 1567              		.loc 1 391 9 is_stmt 1 view .LVU441
 391:Core/Src/main.c ****         slave.Command = 0x03;
 1568              		.loc 1 391 20 is_stmt 0 view .LVU442
 1569 0108 604B     		ldr	r3, .L109+60
 1570 010a 614A     		ldr	r2, .L109+64
 1571 010c 1278     		ldrb	r2, [r2]	@ zero_extendqisi2
 1572 010e 5A70     		strb	r2, [r3, #1]
 392:Core/Src/main.c **** 
 1573              		.loc 1 392 9 is_stmt 1 view .LVU443
 392:Core/Src/main.c **** 
 1574              		.loc 1 392 23 is_stmt 0 view .LVU444
 1575 0110 0322     		movs	r2, #3
 1576 0112 9A70     		strb	r2, [r3, #2]
 394:Core/Src/main.c ****         {
 1577              		.loc 1 394 9 is_stmt 1 view .LVU445
 394:Core/Src/main.c ****         {
 1578              		.loc 1 394 22 is_stmt 0 view .LVU446
 1579 0114 AB88     		ldrh	r3, [r5, #4]
 1580 0116 072B     		cmp	r3, #7
 1581 0118 07D8     		bhi	.L83
 1582 011a 072B     		cmp	r3, #7
ARM GAS  C:\Users\user\AppData\Local\Temp\ccPopRei.s 			page 51


 1583 011c 78D8     		bhi	.L101
 1584 011e DFE803F0 		tbb	[pc, r3]
 1585              	.L85:
 1586 0122 35       		.byte	(.L90-.L85)/2
 1587 0123 3E       		.byte	(.L89-.L85)/2
 1588 0124 46       		.byte	(.L88-.L85)/2
 1589 0125 77       		.byte	(.L101-.L85)/2
 1590 0126 50       		.byte	(.L87-.L85)/2
 1591 0127 59       		.byte	(.L86-.L85)/2
 1592 0128 77       		.byte	(.L101-.L85)/2
 1593 0129 63       		.byte	(.L84-.L85)/2
 1594              		.p2align 1
 1595              	.L83:
 1596 012a 6F2B     		cmp	r3, #111
 1597 012c 69D0     		beq	.L91
 1598 012e B3F57F4F 		cmp	r3, #65280
 1599 0132 01D1     		bne	.L107
 1600 0134 2546     		mov	r5, r4
 1601 0136 BEE7     		b	.L82
 1602              	.L107:
 1603 0138 682B     		cmp	r3, #104
 1604 013a 24D1     		bne	.L108
 439:Core/Src/main.c ****           {
 1605              		.loc 1 439 11 is_stmt 1 view .LVU447
 439:Core/Src/main.c ****           {
 1606              		.loc 1 439 14 is_stmt 0 view .LVU448
 1607 013c 554B     		ldr	r3, .L109+68
 1608 013e 1B78     		ldrb	r3, [r3]	@ zero_extendqisi2
 439:Core/Src/main.c ****           {
 1609              		.loc 1 439 13 view .LVU449
 1610 0140 C3B9     		cbnz	r3, .L93
 441:Core/Src/main.c ****               {
 1611              		.loc 1 441 15 is_stmt 1 view .LVU450
 441:Core/Src/main.c ****               {
 1612              		.loc 1 441 29 is_stmt 0 view .LVU451
 1613 0142 554B     		ldr	r3, .L109+72
 1614 0144 1B88     		ldrh	r3, [r3]
 441:Core/Src/main.c ****               {
 1615              		.loc 1 441 17 view .LVU452
 1616 0146 0A2B     		cmp	r3, #10
 1617 0148 05D9     		bls	.L94
 443:Core/Src/main.c ****                 fall = true;
 1618              		.loc 1 443 17 is_stmt 1 view .LVU453
 443:Core/Src/main.c ****                 fall = true;
 1619              		.loc 1 443 22 is_stmt 0 view .LVU454
 1620 014a 544A     		ldr	r2, .L109+76
 1621 014c 0021     		movs	r1, #0
 1622 014e 1170     		strb	r1, [r2]
 444:Core/Src/main.c ****               }
 1623              		.loc 1 444 17 is_stmt 1 view .LVU455
 444:Core/Src/main.c ****               }
 1624              		.loc 1 444 22 is_stmt 0 view .LVU456
 1625 0150 534A     		ldr	r2, .L109+80
 1626 0152 0121     		movs	r1, #1
 1627 0154 1170     		strb	r1, [r2]
 1628              	.L94:
 447:Core/Src/main.c ****               {
ARM GAS  C:\Users\user\AppData\Local\Temp\ccPopRei.s 			page 52


 1629              		.loc 1 447 15 is_stmt 1 view .LVU457
 447:Core/Src/main.c ****               {
 1630              		.loc 1 447 17 is_stmt 0 view .LVU458
 1631 0156 042B     		cmp	r3, #4
 1632 0158 05D8     		bhi	.L95
 449:Core/Src/main.c ****                 fall = false;
 1633              		.loc 1 449 17 is_stmt 1 view .LVU459
 449:Core/Src/main.c ****                 fall = false;
 1634              		.loc 1 449 22 is_stmt 0 view .LVU460
 1635 015a 504A     		ldr	r2, .L109+76
 1636 015c 0121     		movs	r1, #1
 1637 015e 1170     		strb	r1, [r2]
 450:Core/Src/main.c ****               }
 1638              		.loc 1 450 17 is_stmt 1 view .LVU461
 450:Core/Src/main.c ****               }
 1639              		.loc 1 450 22 is_stmt 0 view .LVU462
 1640 0160 4F4A     		ldr	r2, .L109+80
 1641 0162 0021     		movs	r1, #0
 1642 0164 1170     		strb	r1, [r2]
 1643              	.L95:
 453:Core/Src/main.c ****               {
 1644              		.loc 1 453 15 is_stmt 1 view .LVU463
 453:Core/Src/main.c ****               {
 1645              		.loc 1 453 18 is_stmt 0 view .LVU464
 1646 0166 4D4A     		ldr	r2, .L109+76
 1647 0168 1278     		ldrb	r2, [r2]	@ zero_extendqisi2
 453:Core/Src/main.c ****               {
 1648              		.loc 1 453 17 view .LVU465
 1649 016a 002A     		cmp	r2, #0
 1650 016c 45D0     		beq	.L96
 455:Core/Src/main.c ****               }
 1651              		.loc 1 455 17 is_stmt 1 view .LVU466
 455:Core/Src/main.c ****               }
 1652              		.loc 1 455 27 is_stmt 0 view .LVU467
 1653 016e 0133     		adds	r3, r3, #1
 1654 0170 494A     		ldr	r2, .L109+72
 1655 0172 1380     		strh	r3, [r2]	@ movhi
 1656              	.L93:
 463:Core/Src/main.c ****           slave.Byte_Count = 2;
 1657              		.loc 1 463 11 is_stmt 1 view .LVU468
 463:Core/Src/main.c ****           slave.Byte_Count = 2;
 1658              		.loc 1 463 33 is_stmt 0 view .LVU469
 1659 0174 454B     		ldr	r3, .L109+60
 1660 0176 484A     		ldr	r2, .L109+72
 1661 0178 1288     		ldrh	r2, [r2]
 1662 017a 9A80     		strh	r2, [r3, #4]	@ movhi
 464:Core/Src/main.c ****           slave.type = 0;
 1663              		.loc 1 464 11 is_stmt 1 view .LVU470
 464:Core/Src/main.c ****           slave.type = 0;
 1664              		.loc 1 464 28 is_stmt 0 view .LVU471
 1665 017c 0222     		movs	r2, #2
 1666 017e DA70     		strb	r2, [r3, #3]
 465:Core/Src/main.c ****           trueCommand = true;
 1667              		.loc 1 465 11 is_stmt 1 view .LVU472
 465:Core/Src/main.c ****           trueCommand = true;
 1668              		.loc 1 465 22 is_stmt 0 view .LVU473
 1669 0180 0025     		movs	r5, #0
ARM GAS  C:\Users\user\AppData\Local\Temp\ccPopRei.s 			page 53


 1670 0182 1D70     		strb	r5, [r3]
 466:Core/Src/main.c ****           break;
 1671              		.loc 1 466 11 is_stmt 1 view .LVU474
 1672              	.LVL91:
 467:Core/Src/main.c **** 
 1673              		.loc 1 467 11 view .LVU475
 1674 0184 97E7     		b	.L82
 1675              	.LVL92:
 1676              	.L108:
 386:Core/Src/main.c ****       NOS_ModBus_ParseMasterCommand(&master,&rx_buff,0);
 1677              		.loc 1 386 12 is_stmt 0 view .LVU476
 1678 0186 0025     		movs	r5, #0
 482:Core/Src/main.c ****           break;
 1679              		.loc 1 482 23 view .LVU477
 1680 0188 2C46     		mov	r4, r5
 1681 018a 94E7     		b	.L82
 1682              	.L90:
 397:Core/Src/main.c ****           slave.Byte_Count = 2;
 1683              		.loc 1 397 11 is_stmt 1 view .LVU478
 397:Core/Src/main.c ****           slave.Byte_Count = 2;
 1684              		.loc 1 397 33 is_stmt 0 view .LVU479
 1685 018c 3F4B     		ldr	r3, .L109+60
 1686 018e 4FF47A72 		mov	r2, #1000
 1687 0192 9A80     		strh	r2, [r3, #4]	@ movhi
 398:Core/Src/main.c ****           slave.type = 0;
 1688              		.loc 1 398 11 is_stmt 1 view .LVU480
 398:Core/Src/main.c ****           slave.type = 0;
 1689              		.loc 1 398 28 is_stmt 0 view .LVU481
 1690 0194 0222     		movs	r2, #2
 1691 0196 DA70     		strb	r2, [r3, #3]
 399:Core/Src/main.c ****           trueCommand = true;
 1692              		.loc 1 399 11 is_stmt 1 view .LVU482
 399:Core/Src/main.c ****           trueCommand = true;
 1693              		.loc 1 399 22 is_stmt 0 view .LVU483
 1694 0198 0025     		movs	r5, #0
 1695 019a 1D70     		strb	r5, [r3]
 400:Core/Src/main.c ****           break;
 1696              		.loc 1 400 11 is_stmt 1 view .LVU484
 1697              	.LVL93:
 401:Core/Src/main.c **** 
 1698              		.loc 1 401 11 view .LVU485
 1699 019c 8BE7     		b	.L82
 1700              	.LVL94:
 1701              	.L89:
 404:Core/Src/main.c ****           slave.Byte_Count = 2;
 1702              		.loc 1 404 11 view .LVU486
 404:Core/Src/main.c ****           slave.Byte_Count = 2;
 1703              		.loc 1 404 33 is_stmt 0 view .LVU487
 1704 019e 3B4B     		ldr	r3, .L109+60
 1705 01a0 1922     		movs	r2, #25
 1706 01a2 9A80     		strh	r2, [r3, #4]	@ movhi
 405:Core/Src/main.c ****           slave.type = 0;
 1707              		.loc 1 405 11 is_stmt 1 view .LVU488
 405:Core/Src/main.c ****           slave.type = 0;
 1708              		.loc 1 405 28 is_stmt 0 view .LVU489
 1709 01a4 0222     		movs	r2, #2
 1710 01a6 DA70     		strb	r2, [r3, #3]
ARM GAS  C:\Users\user\AppData\Local\Temp\ccPopRei.s 			page 54


 406:Core/Src/main.c ****           trueCommand = true;
 1711              		.loc 1 406 11 is_stmt 1 view .LVU490
 406:Core/Src/main.c ****           trueCommand = true;
 1712              		.loc 1 406 22 is_stmt 0 view .LVU491
 1713 01a8 0025     		movs	r5, #0
 1714 01aa 1D70     		strb	r5, [r3]
 407:Core/Src/main.c ****           break;
 1715              		.loc 1 407 11 is_stmt 1 view .LVU492
 1716              	.LVL95:
 408:Core/Src/main.c **** 
 1717              		.loc 1 408 11 view .LVU493
 1718 01ac 83E7     		b	.L82
 1719              	.LVL96:
 1720              	.L88:
 411:Core/Src/main.c ****           slave.Byte_Count = 4;
 1721              		.loc 1 411 11 view .LVU494
 411:Core/Src/main.c ****           slave.Byte_Count = 4;
 1722              		.loc 1 411 43 is_stmt 0 view .LVU495
 1723 01ae 2E4B     		ldr	r3, .L109+24
 1724 01b0 1A68     		ldr	r2, [r3]	@ float
 411:Core/Src/main.c ****           slave.Byte_Count = 4;
 1725              		.loc 1 411 33 view .LVU496
 1726 01b2 364B     		ldr	r3, .L109+60
 1727 01b4 9A60     		str	r2, [r3, #8]	@ float
 412:Core/Src/main.c ****           slave.type = 1;
 1728              		.loc 1 412 11 is_stmt 1 view .LVU497
 412:Core/Src/main.c ****           slave.type = 1;
 1729              		.loc 1 412 28 is_stmt 0 view .LVU498
 1730 01b6 0422     		movs	r2, #4
 1731 01b8 DA70     		strb	r2, [r3, #3]
 413:Core/Src/main.c ****           trueCommand = true;
 1732              		.loc 1 413 11 is_stmt 1 view .LVU499
 413:Core/Src/main.c ****           trueCommand = true;
 1733              		.loc 1 413 22 is_stmt 0 view .LVU500
 1734 01ba 0122     		movs	r2, #1
 1735 01bc 1A70     		strb	r2, [r3]
 414:Core/Src/main.c ****           break;
 1736              		.loc 1 414 11 is_stmt 1 view .LVU501
 1737              	.LVL97:
 415:Core/Src/main.c **** 
 1738              		.loc 1 415 11 view .LVU502
 386:Core/Src/main.c ****       NOS_ModBus_ParseMasterCommand(&master,&rx_buff,0);
 1739              		.loc 1 386 12 is_stmt 0 view .LVU503
 1740 01be 0025     		movs	r5, #0
 415:Core/Src/main.c **** 
 1741              		.loc 1 415 11 view .LVU504
 1742 01c0 79E7     		b	.L82
 1743              	.LVL98:
 1744              	.L87:
 418:Core/Src/main.c ****           slave.Byte_Count = 2;
 1745              		.loc 1 418 11 is_stmt 1 view .LVU505
 418:Core/Src/main.c ****           slave.Byte_Count = 2;
 1746              		.loc 1 418 33 is_stmt 0 view .LVU506
 1747 01c2 324B     		ldr	r3, .L109+60
 1748 01c4 2A4A     		ldr	r2, .L109+32
 1749 01c6 1288     		ldrh	r2, [r2]
 1750 01c8 9A80     		strh	r2, [r3, #4]	@ movhi
ARM GAS  C:\Users\user\AppData\Local\Temp\ccPopRei.s 			page 55


 419:Core/Src/main.c ****           slave.type = 0;
 1751              		.loc 1 419 11 is_stmt 1 view .LVU507
 419:Core/Src/main.c ****           slave.type = 0;
 1752              		.loc 1 419 28 is_stmt 0 view .LVU508
 1753 01ca 0222     		movs	r2, #2
 1754 01cc DA70     		strb	r2, [r3, #3]
 420:Core/Src/main.c ****           trueCommand = true;
 1755              		.loc 1 420 11 is_stmt 1 view .LVU509
 420:Core/Src/main.c ****           trueCommand = true;
 1756              		.loc 1 420 22 is_stmt 0 view .LVU510
 1757 01ce 0025     		movs	r5, #0
 1758 01d0 1D70     		strb	r5, [r3]
 421:Core/Src/main.c ****           break;
 1759              		.loc 1 421 11 is_stmt 1 view .LVU511
 1760              	.LVL99:
 422:Core/Src/main.c ****          
 1761              		.loc 1 422 11 view .LVU512
 1762 01d2 70E7     		b	.L82
 1763              	.LVL100:
 1764              	.L86:
 425:Core/Src/main.c ****           slave.Byte_Count = 4;
 1765              		.loc 1 425 11 view .LVU513
 425:Core/Src/main.c ****           slave.Byte_Count = 4;
 1766              		.loc 1 425 33 is_stmt 0 view .LVU514
 1767 01d4 2D4B     		ldr	r3, .L109+60
 1768 01d6 4FF07A52 		mov	r2, #1048576000
 1769 01da 9A60     		str	r2, [r3, #8]	@ float
 426:Core/Src/main.c ****           slave.type = 1;
 1770              		.loc 1 426 11 is_stmt 1 view .LVU515
 426:Core/Src/main.c ****           slave.type = 1;
 1771              		.loc 1 426 28 is_stmt 0 view .LVU516
 1772 01dc 0422     		movs	r2, #4
 1773 01de DA70     		strb	r2, [r3, #3]
 427:Core/Src/main.c ****           trueCommand = true;
 1774              		.loc 1 427 11 is_stmt 1 view .LVU517
 427:Core/Src/main.c ****           trueCommand = true;
 1775              		.loc 1 427 22 is_stmt 0 view .LVU518
 1776 01e0 0122     		movs	r2, #1
 1777 01e2 1A70     		strb	r2, [r3]
 428:Core/Src/main.c ****           break;
 1778              		.loc 1 428 11 is_stmt 1 view .LVU519
 1779              	.LVL101:
 429:Core/Src/main.c **** 
 1780              		.loc 1 429 11 view .LVU520
 386:Core/Src/main.c ****       NOS_ModBus_ParseMasterCommand(&master,&rx_buff,0);
 1781              		.loc 1 386 12 is_stmt 0 view .LVU521
 1782 01e4 0025     		movs	r5, #0
 429:Core/Src/main.c **** 
 1783              		.loc 1 429 11 view .LVU522
 1784 01e6 66E7     		b	.L82
 1785              	.LVL102:
 1786              	.L84:
 432:Core/Src/main.c ****           slave.Byte_Count = 4;
 1787              		.loc 1 432 11 is_stmt 1 view .LVU523
 432:Core/Src/main.c ****           slave.Byte_Count = 4;
 1788              		.loc 1 432 33 is_stmt 0 view .LVU524
 1789 01e8 284B     		ldr	r3, .L109+60
ARM GAS  C:\Users\user\AppData\Local\Temp\ccPopRei.s 			page 56


 1790 01ea 2E4A     		ldr	r2, .L109+84
 1791 01ec 9A60     		str	r2, [r3, #8]	@ float
 433:Core/Src/main.c ****           slave.type = 1;
 1792              		.loc 1 433 11 is_stmt 1 view .LVU525
 433:Core/Src/main.c ****           slave.type = 1;
 1793              		.loc 1 433 28 is_stmt 0 view .LVU526
 1794 01ee 0422     		movs	r2, #4
 1795 01f0 DA70     		strb	r2, [r3, #3]
 434:Core/Src/main.c ****           trueCommand = true;
 1796              		.loc 1 434 11 is_stmt 1 view .LVU527
 434:Core/Src/main.c ****           trueCommand = true;
 1797              		.loc 1 434 22 is_stmt 0 view .LVU528
 1798 01f2 0122     		movs	r2, #1
 1799 01f4 1A70     		strb	r2, [r3]
 435:Core/Src/main.c ****           break;
 1800              		.loc 1 435 11 is_stmt 1 view .LVU529
 1801              	.LVL103:
 436:Core/Src/main.c **** 
 1802              		.loc 1 436 11 view .LVU530
 386:Core/Src/main.c ****       NOS_ModBus_ParseMasterCommand(&master,&rx_buff,0);
 1803              		.loc 1 386 12 is_stmt 0 view .LVU531
 1804 01f6 0025     		movs	r5, #0
 436:Core/Src/main.c **** 
 1805              		.loc 1 436 11 view .LVU532
 1806 01f8 5DE7     		b	.L82
 1807              	.LVL104:
 1808              	.L96:
 459:Core/Src/main.c ****               }
 1809              		.loc 1 459 17 is_stmt 1 view .LVU533
 459:Core/Src/main.c ****               }
 1810              		.loc 1 459 27 is_stmt 0 view .LVU534
 1811 01fa 013B     		subs	r3, r3, #1
 1812 01fc 264A     		ldr	r2, .L109+72
 1813 01fe 1380     		strh	r3, [r2]	@ movhi
 1814 0200 B8E7     		b	.L93
 1815              	.L91:
 470:Core/Src/main.c ****           slave.Byte_Count = 2;
 1816              		.loc 1 470 11 is_stmt 1 view .LVU535
 470:Core/Src/main.c ****           slave.Byte_Count = 2;
 1817              		.loc 1 470 33 is_stmt 0 view .LVU536
 1818 0202 224B     		ldr	r3, .L109+60
 1819 0204 0025     		movs	r5, #0
 1820 0206 9D80     		strh	r5, [r3, #4]	@ movhi
 471:Core/Src/main.c ****           slave.type = 0;
 1821              		.loc 1 471 11 is_stmt 1 view .LVU537
 471:Core/Src/main.c ****           slave.type = 0;
 1822              		.loc 1 471 28 is_stmt 0 view .LVU538
 1823 0208 0222     		movs	r2, #2
 1824 020a DA70     		strb	r2, [r3, #3]
 472:Core/Src/main.c ****           trueCommand = true;
 1825              		.loc 1 472 11 is_stmt 1 view .LVU539
 472:Core/Src/main.c ****           trueCommand = true;
 1826              		.loc 1 472 22 is_stmt 0 view .LVU540
 1827 020c 1D70     		strb	r5, [r3]
 473:Core/Src/main.c ****           break;
 1828              		.loc 1 473 11 is_stmt 1 view .LVU541
 1829              	.LVL105:
ARM GAS  C:\Users\user\AppData\Local\Temp\ccPopRei.s 			page 57


 474:Core/Src/main.c **** 
 1830              		.loc 1 474 11 view .LVU542
 1831 020e 52E7     		b	.L82
 1832              	.LVL106:
 1833              	.L101:
 386:Core/Src/main.c ****       NOS_ModBus_ParseMasterCommand(&master,&rx_buff,0);
 1834              		.loc 1 386 12 is_stmt 0 view .LVU543
 1835 0210 0025     		movs	r5, #0
 482:Core/Src/main.c ****           break;
 1836              		.loc 1 482 23 view .LVU544
 1837 0212 2C46     		mov	r4, r5
 1838 0214 4FE7     		b	.L82
 1839              	.LVL107:
 1840              	.L106:
 492:Core/Src/main.c ****             HAL_GPIO_WritePin(GPIOA,GPIO_PIN_8,1);
 1841              		.loc 1 492 13 is_stmt 1 view .LVU545
 1842 0216 1A4E     		ldr	r6, .L109+48
 1843 0218 0122     		movs	r2, #1
 1844 021a 4021     		movs	r1, #64
 1845 021c 3046     		mov	r0, r6
 1846 021e FFF7FEFF 		bl	HAL_GPIO_WritePin
 1847              	.LVL108:
 493:Core/Src/main.c ****             NOS_ModBus_SendSlaveCommand(&slave);
 1848              		.loc 1 493 13 view .LVU546
 1849 0222 194F     		ldr	r7, .L109+56
 1850 0224 0122     		movs	r2, #1
 1851 0226 4FF48071 		mov	r1, #256
 1852 022a 3846     		mov	r0, r7
 1853 022c FFF7FEFF 		bl	HAL_GPIO_WritePin
 1854              	.LVL109:
 494:Core/Src/main.c ****             HAL_GPIO_WritePin(GPIOA,GPIO_PIN_8,0);
 1855              		.loc 1 494 13 view .LVU547
 1856 0230 1648     		ldr	r0, .L109+60
 1857 0232 FFF7FEFF 		bl	NOS_ModBus_SendSlaveCommand
 1858              	.LVL110:
 495:Core/Src/main.c ****             HAL_GPIO_WritePin(GPIOB,LED_TX_Pin,0);
 1859              		.loc 1 495 13 view .LVU548
 1860 0236 0022     		movs	r2, #0
 1861 0238 4FF48071 		mov	r1, #256
 1862 023c 3846     		mov	r0, r7
 1863 023e FFF7FEFF 		bl	HAL_GPIO_WritePin
 1864              	.LVL111:
 496:Core/Src/main.c ****       }
 1865              		.loc 1 496 13 view .LVU549
 1866 0242 0022     		movs	r2, #0
 1867 0244 4021     		movs	r1, #64
 1868 0246 3046     		mov	r0, r6
 1869 0248 FFF7FEFF 		bl	HAL_GPIO_WritePin
 1870              	.LVL112:
 1871 024c 3CE7     		b	.L97
 1872              	.L110:
 1873 024e 00BF     		.align	2
 1874              	.L109:
 1875 0250 CDCC6C40 		.word	1080872141
 1876 0254 00000000 		.word	.LANCHOR16
 1877 0258 00000000 		.word	.LANCHOR6
 1878 025c 00000000 		.word	.LANCHOR8
ARM GAS  C:\Users\user\AppData\Local\Temp\ccPopRei.s 			page 58


 1879 0260 00000000 		.word	.LANCHOR27
 1880 0264 00000000 		.word	.LANCHOR14
 1881 0268 00000000 		.word	.LANCHOR13
 1882 026c 66664640 		.word	1078355558
 1883 0270 00000000 		.word	.LANCHOR17
 1884 0274 00000000 		.word	.LANCHOR7
 1885 0278 00000000 		.word	.LANCHOR23
 1886 027c 00000000 		.word	.LANCHOR28
 1887 0280 000C0140 		.word	1073810432
 1888 0284 00000000 		.word	.LANCHOR29
 1889 0288 00080140 		.word	1073809408
 1890 028c 00000000 		.word	.LANCHOR30
 1891 0290 00000000 		.word	.LANCHOR31
 1892 0294 00000000 		.word	.LANCHOR22
 1893 0298 00000000 		.word	.LANCHOR19
 1894 029c 00000000 		.word	.LANCHOR32
 1895 02a0 00000000 		.word	.LANCHOR33
 1896 02a4 0000A03F 		.word	1067450368
 1897              	.LBE14:
 1898              		.cfi_endproc
 1899              	.LFE75:
 1901              		.global	show_globaltickcount
 1902              		.global	show_tickcount2
 1903              		.global	show_tickcount1
 1904              		.global	debugCount
 1905              		.global	dt
 1906              		.global	ow
 1907              		.global	detector
 1908              		.global	fall
 1909              		.global	rise
 1910              		.global	tubeIsIn
 1911              		.global	temperature
 1912              		.global	coef
 1913              		.global	detector_Addr
 1914              		.global	voltage
 1915              		.global	stat
 1916              		.global	time
 1917              		.global	time250ms
 1918              		.global	globalTickCount
 1919              		.global	tickcount2
 1920              		.global	uSvValue
 1921              		.global	tickcountBuff
 1922              		.global	tickcount1
 1923              		.global	counter
 1924              		.global	tx_buff
 1925              		.global	tx_flag
 1926              		.global	rx_flag
 1927              		.global	currCommand
 1928              		.global	lenght
 1929              		.global	fuckIndex
 1930              		.global	fuck_buff
 1931              		.global	rx_buff
 1932              		.global	AddressOk
 1933              		.global	state
 1934              		.global	slave
 1935              		.global	master
 1936              		.global	huart2
ARM GAS  C:\Users\user\AppData\Local\Temp\ccPopRei.s 			page 59


 1937              		.global	huart1
 1938              		.global	hiwdg
 1939              		.global	hadc1
 1940              		.section	.bss.AddressOk,"aw",%nobits
 1941              		.set	.LANCHOR3,. + 0
 1944              	AddressOk:
 1945 0000 00       		.space	1
 1946              		.section	.bss.counter,"aw",%nobits
 1949              	counter:
 1950 0000 00       		.space	1
 1951              		.section	.bss.currCommand,"aw",%nobits
 1952              		.set	.LANCHOR5,. + 0
 1955              	currCommand:
 1956 0000 00       		.space	1
 1957              		.section	.bss.debugCount,"aw",%nobits
 1958              		.align	2
 1959              		.set	.LANCHOR28,. + 0
 1962              	debugCount:
 1963 0000 00000000 		.space	4
 1964              		.section	.bss.detector,"aw",%nobits
 1965              		.align	2
 1968              	detector:
 1969 0000 00000000 		.space	56
 1969      00000000 
 1969      00000000 
 1969      00000000 
 1969      00000000 
 1970              		.section	.bss.dt,"aw",%nobits
 1971              		.align	2
 1972              		.set	.LANCHOR26,. + 0
 1975              	dt:
 1976 0000 00000000 		.space	12
 1976      00000000 
 1976      00000000 
 1977              		.section	.bss.fall,"aw",%nobits
 1978              		.set	.LANCHOR33,. + 0
 1981              	fall:
 1982 0000 00       		.space	1
 1983              		.section	.bss.fuckIndex,"aw",%nobits
 1984              		.align	1
 1985              		.set	.LANCHOR1,. + 0
 1988              	fuckIndex:
 1989 0000 0000     		.space	2
 1990              		.section	.bss.fuck_buff,"aw",%nobits
 1991              		.align	2
 1992              		.set	.LANCHOR2,. + 0
 1995              	fuck_buff:
 1996 0000 00000000 		.space	1024
 1996      00000000 
 1996      00000000 
 1996      00000000 
 1996      00000000 
 1997              		.section	.bss.globalTickCount,"aw",%nobits
 1998              		.align	1
 1999              		.set	.LANCHOR21,. + 0
 2002              	globalTickCount:
 2003 0000 0000     		.space	2
ARM GAS  C:\Users\user\AppData\Local\Temp\ccPopRei.s 			page 60


 2004              		.section	.bss.hadc1,"aw",%nobits
 2005              		.align	2
 2006              		.set	.LANCHOR27,. + 0
 2009              	hadc1:
 2010 0000 00000000 		.space	48
 2010      00000000 
 2010      00000000 
 2010      00000000 
 2010      00000000 
 2011              		.section	.bss.hiwdg,"aw",%nobits
 2012              		.align	2
 2015              	hiwdg:
 2016 0000 00000000 		.space	12
 2016      00000000 
 2016      00000000 
 2017              		.section	.bss.huart1,"aw",%nobits
 2018              		.align	2
 2019              		.set	.LANCHOR8,. + 0
 2022              	huart1:
 2023 0000 00000000 		.space	68
 2023      00000000 
 2023      00000000 
 2023      00000000 
 2023      00000000 
 2024              		.section	.bss.huart2,"aw",%nobits
 2025              		.align	2
 2026              		.set	.LANCHOR24,. + 0
 2029              	huart2:
 2030 0000 00000000 		.space	68
 2030      00000000 
 2030      00000000 
 2030      00000000 
 2030      00000000 
 2031              		.section	.bss.lenght,"aw",%nobits
 2032              		.set	.LANCHOR4,. + 0
 2035              	lenght:
 2036 0000 00       		.space	1
 2037              		.section	.bss.master,"aw",%nobits
 2038              		.align	2
 2039              		.set	.LANCHOR29,. + 0
 2042              	master:
 2043 0000 00000000 		.space	16
 2043      00000000 
 2043      00000000 
 2043      00000000 
 2044              		.section	.bss.ow,"aw",%nobits
 2045              		.align	2
 2046              		.set	.LANCHOR25,. + 0
 2049              	ow:
 2050 0000 00000000 		.space	16
 2050      00000000 
 2050      00000000 
 2050      00000000 
 2051              		.section	.bss.rx_buff,"aw",%nobits
 2052              		.align	2
 2053              		.set	.LANCHOR6,. + 0
 2056              	rx_buff:
ARM GAS  C:\Users\user\AppData\Local\Temp\ccPopRei.s 			page 61


 2057 0000 00000000 		.space	256
 2057      00000000 
 2057      00000000 
 2057      00000000 
 2057      00000000 
 2058              		.section	.bss.rx_flag,"aw",%nobits
 2059              		.set	.LANCHOR7,. + 0
 2062              	rx_flag:
 2063 0000 00       		.space	1
 2064              		.section	.bss.show_globaltickcount,"aw",%nobits
 2065              		.align	1
 2066              		.set	.LANCHOR12,. + 0
 2069              	show_globaltickcount:
 2070 0000 0000     		.space	2
 2071              		.section	.bss.show_tickcount1,"aw",%nobits
 2072              		.align	1
 2073              		.set	.LANCHOR10,. + 0
 2076              	show_tickcount1:
 2077 0000 0000     		.space	2
 2078              		.section	.bss.show_tickcount2,"aw",%nobits
 2079              		.align	1
 2080              		.set	.LANCHOR11,. + 0
 2083              	show_tickcount2:
 2084 0000 0000     		.space	2
 2085              		.section	.bss.slave,"aw",%nobits
 2086              		.align	2
 2087              		.set	.LANCHOR30,. + 0
 2090              	slave:
 2091 0000 00000000 		.space	12
 2091      00000000 
 2091      00000000 
 2092              		.section	.bss.stat,"aw",%nobits
 2093              		.align	2
 2094              		.set	.LANCHOR14,. + 0
 2097              	stat:
 2098 0000 00000000 		.space	12
 2098      00000000 
 2098      00000000 
 2099              		.section	.bss.state,"aw",%nobits
 2102              	state:
 2103 0000 00       		.space	1
 2104              		.section	.bss.tickcount2,"aw",%nobits
 2105              		.align	1
 2106              		.set	.LANCHOR20,. + 0
 2109              	tickcount2:
 2110 0000 0000     		.space	2
 2111              		.section	.bss.tickcountBuff,"aw",%nobits
 2112              		.align	2
 2115              	tickcountBuff:
 2116 0000 0000     		.space	2
 2117              		.section	.bss.time,"aw",%nobits
 2118              		.align	2
 2119              		.set	.LANCHOR18,. + 0
 2122              	time:
 2123 0000 0000     		.space	2
 2124              		.section	.bss.time250ms,"aw",%nobits
 2125              		.set	.LANCHOR23,. + 0
ARM GAS  C:\Users\user\AppData\Local\Temp\ccPopRei.s 			page 62


 2128              	time250ms:
 2129 0000 00       		.space	1
 2130              		.section	.bss.tubeIsIn,"aw",%nobits
 2131              		.set	.LANCHOR22,. + 0
 2134              	tubeIsIn:
 2135 0000 00       		.space	1
 2136              		.section	.bss.tx_buff,"aw",%nobits
 2137              		.align	2
 2138              		.set	.LANCHOR9,. + 0
 2141              	tx_buff:
 2142 0000 00000000 		.space	16
 2142      00000000 
 2142      00000000 
 2142      00000000 
 2143              		.section	.bss.tx_flag,"aw",%nobits
 2146              	tx_flag:
 2147 0000 00       		.space	1
 2148              		.section	.bss.uSvValue,"aw",%nobits
 2149              		.align	2
 2150              		.set	.LANCHOR13,. + 0
 2153              	uSvValue:
 2154 0000 00000000 		.space	4
 2155              		.section	.bss.voltage,"aw",%nobits
 2156              		.align	1
 2157              		.set	.LANCHOR17,. + 0
 2160              	voltage:
 2161 0000 0000     		.space	2
 2162              		.section	.data.coef,"aw"
 2163              		.align	2
 2164              		.set	.LANCHOR16,. + 0
 2167              	coef:
 2168 0000 A69B443C 		.word	1011129254
 2169              		.section	.data.detector_Addr,"aw"
 2170              		.set	.LANCHOR31,. + 0
 2173              	detector_Addr:
 2174 0000 65       		.byte	101
 2175              		.section	.data.rise,"aw"
 2176              		.set	.LANCHOR32,. + 0
 2179              	rise:
 2180 0000 01       		.byte	1
 2181              		.section	.data.rx_buff_ptr.0,"aw"
 2182              		.align	2
 2183              		.set	.LANCHOR0,. + 0
 2186              	rx_buff_ptr.0:
 2187 0000 00000000 		.word	rx_buff
 2188              		.section	.data.temperature,"aw"
 2189              		.align	1
 2190              		.set	.LANCHOR15,. + 0
 2193              	temperature:
 2194 0000 1900     		.short	25
 2195              		.section	.data.tickcount1,"aw"
 2196              		.align	1
 2197              		.set	.LANCHOR19,. + 0
 2200              	tickcount1:
 2201 0000 0500     		.short	5
 2202              		.text
 2203              	.Letext0:
ARM GAS  C:\Users\user\AppData\Local\Temp\ccPopRei.s 			page 63


 2204              		.file 3 "c:\\users\\user\\appdata\\roaming\\code\\user\\globalstorage\\bmd.stm32-for-vscode\\@xpac
 2205              		.file 4 "c:\\users\\user\\appdata\\roaming\\code\\user\\globalstorage\\bmd.stm32-for-vscode\\@xpac
 2206              		.file 5 "Drivers/CMSIS/Device/ST/STM32F1xx/Include/stm32f103xb.h"
 2207              		.file 6 "Drivers/CMSIS/Device/ST/STM32F1xx/Include/stm32f1xx.h"
 2208              		.file 7 "Drivers/STM32F1xx_HAL_Driver/Inc/stm32f1xx_hal_def.h"
 2209              		.file 8 "Drivers/STM32F1xx_HAL_Driver/Inc/stm32f1xx_hal_rcc.h"
 2210              		.file 9 "Drivers/STM32F1xx_HAL_Driver/Inc/stm32f1xx_hal_rcc_ex.h"
 2211              		.file 10 "Drivers/STM32F1xx_HAL_Driver/Inc/stm32f1xx_hal_gpio.h"
 2212              		.file 11 "Drivers/STM32F1xx_HAL_Driver/Inc/stm32f1xx_hal_dma.h"
 2213              		.file 12 "Drivers/STM32F1xx_HAL_Driver/Inc/stm32f1xx_hal_adc.h"
 2214              		.file 13 "Drivers/STM32F1xx_HAL_Driver/Inc/stm32f1xx_hal_iwdg.h"
 2215              		.file 14 "Drivers/STM32F1xx_HAL_Driver/Inc/stm32f1xx_hal_uart.h"
 2216              		.file 15 "Core/Src/Code/StatPM.h"
 2217              		.file 16 "Core/Src/NOS_Typedefs.h"
 2218              		.file 17 "Core/Inc/OneWire.h"
 2219              		.file 18 "Core/Inc/DallasTemperature.h"
 2220              		.file 19 "Drivers/STM32F1xx_HAL_Driver/Inc/stm32f1xx_hal_cortex.h"
 2221              		.file 20 "Core/Src/NOS_ModBus.h"
 2222              		.file 21 "Drivers/STM32F1xx_HAL_Driver/Inc/stm32f1xx_hal.h"
 2223              		.file 22 "Core/Src/../Src/Code/Detector.h"
 2224              		.file 23 "<built-in>"
ARM GAS  C:\Users\user\AppData\Local\Temp\ccPopRei.s 			page 64

