ARM GAS  C:\Users\user\AppData\Local\Temp\ccCV55PV.s 			page 1


   1              		.cpu cortex-m3
   2              		.eabi_attribute 20, 1
   3              		.eabi_attribute 21, 1
   4              		.eabi_attribute 23, 3
   5              		.eabi_attribute 24, 1
   6              		.eabi_attribute 25, 1
   7              		.eabi_attribute 26, 1
   8              		.eabi_attribute 30, 1
   9              		.eabi_attribute 34, 1
  10              		.eabi_attribute 18, 4
  11              		.file	"StatPM.c"
  12              		.text
  13              	.Ltext0:
  14              		.cfi_sections	.debug_frame
  15              		.global	__aeabi_ui2f
  16              		.global	__aeabi_fmul
  17              		.global	__aeabi_f2uiz
  18              		.section	.text.Stat_Init,"ax",%progbits
  19              		.align	1
  20              		.global	Stat_Init
  21              		.arch armv7-m
  22              		.syntax unified
  23              		.thumb
  24              		.thumb_func
  25              		.fpu softvfp
  27              	Stat_Init:
  28              	.LVL0:
  29              	.LFB3:
  30              		.file 1 "Core/Src/Code/StatPM.c"
   1:Core/Src/Code/StatPM.c **** #include "StatPM.h"
   2:Core/Src/Code/StatPM.c **** #include "stat.h"
   3:Core/Src/Code/StatPM.c **** #include "FindX.h"
   4:Core/Src/Code/StatPM.c **** 
   5:Core/Src/Code/StatPM.c **** ////////////////////////////////////////////////////////////////////////////////
   6:Core/Src/Code/StatPM.c **** // Function                                                                   //
   7:Core/Src/Code/StatPM.c **** ////////////////////////////////////////////////////////////////////////////////
   8:Core/Src/Code/StatPM.c **** 
   9:Core/Src/Code/StatPM.c **** static float  CPS;
  10:Core/Src/Code/StatPM.c **** static int8_t Delta;
  11:Core/Src/Code/StatPM.c **** uint16_t FindChange=0;
  12:Core/Src/Code/StatPM.c **** 
  13:Core/Src/Code/StatPM.c **** // Stat
  14:Core/Src/Code/StatPM.c **** void Stat_Init(float nSigm, uint16_t tCall, float tau) {
  31              		.loc 1 14 56 view -0
  32              		.cfi_startproc
  33              		@ args = 0, pretend = 0, frame = 0
  34              		@ frame_needed = 0, uses_anonymous_args = 0
  35              		.loc 1 14 56 is_stmt 0 view .LVU1
  36 0000 38B5     		push	{r3, r4, r5, lr}
  37              		.cfi_def_cfa_offset 16
  38              		.cfi_offset 3, -16
  39              		.cfi_offset 4, -12
  40              		.cfi_offset 5, -8
  41              		.cfi_offset 14, -4
  42 0002 0546     		mov	r5, r0
  43 0004 1446     		mov	r4, r2
  15:Core/Src/Code/StatPM.c ****   float timen = (float) tCall/TimeBase_Sec;
ARM GAS  C:\Users\user\AppData\Local\Temp\ccCV55PV.s 			page 2


  44              		.loc 1 15 3 is_stmt 1 view .LVU2
  45              		.loc 1 15 17 is_stmt 0 view .LVU3
  46 0006 0846     		mov	r0, r1
  47              	.LVL1:
  48              		.loc 1 15 17 view .LVU4
  49 0008 FFF7FEFF 		bl	__aeabi_ui2f
  50              	.LVL2:
  51              		.loc 1 15 9 view .LVU5
  52 000c 4FF08141 		mov	r1, #1082130432
  53 0010 FFF7FEFF 		bl	__aeabi_fmul
  54              	.LVL3:
  16:Core/Src/Code/StatPM.c ****   uint16_t Time = (uint16_t)timen;
  55              		.loc 1 16 3 is_stmt 1 view .LVU6
  56              		.loc 1 16 12 is_stmt 0 view .LVU7
  57 0014 FFF7FEFF 		bl	__aeabi_f2uiz
  58              	.LVL4:
  17:Core/Src/Code/StatPM.c ****   FW5_SetPorog(nSigm,Time);
  59              		.loc 1 17 3 is_stmt 1 view .LVU8
  60 0018 81B2     		uxth	r1, r0
  61 001a 2846     		mov	r0, r5
  62              	.LVL5:
  63              		.loc 1 17 3 is_stmt 0 view .LVU9
  64 001c FFF7FEFF 		bl	FW5_SetPorog
  65              	.LVL6:
  18:Core/Src/Code/StatPM.c ****   stat_SetDeatTime(tau);
  66              		.loc 1 18 3 is_stmt 1 view .LVU10
  67 0020 2046     		mov	r0, r4
  68 0022 FFF7FEFF 		bl	stat_SetDeatTime
  69              	.LVL7:
  19:Core/Src/Code/StatPM.c ****   FW5_Calibration( );
  70              		.loc 1 19 3 view .LVU11
  71 0026 FFF7FEFF 		bl	FW5_Calibration
  72              	.LVL8:
  20:Core/Src/Code/StatPM.c **** }
  73              		.loc 1 20 1 is_stmt 0 view .LVU12
  74 002a 38BD     		pop	{r3, r4, r5, pc}
  75              		.loc 1 20 1 view .LVU13
  76              		.cfi_endproc
  77              	.LFE3:
  79              		.section	.text.Stat_Reset,"ax",%progbits
  80              		.align	1
  81              		.global	Stat_Reset
  82              		.syntax unified
  83              		.thumb
  84              		.thumb_func
  85              		.fpu softvfp
  87              	Stat_Reset:
  88              	.LFB4:
  21:Core/Src/Code/StatPM.c **** 
  22:Core/Src/Code/StatPM.c **** // Reset Stat
  23:Core/Src/Code/StatPM.c **** void Stat_Reset(void) {
  89              		.loc 1 23 23 is_stmt 1 view -0
  90              		.cfi_startproc
  91              		@ args = 0, pretend = 0, frame = 0
  92              		@ frame_needed = 0, uses_anonymous_args = 0
  93 0000 08B5     		push	{r3, lr}
  94              		.cfi_def_cfa_offset 8
ARM GAS  C:\Users\user\AppData\Local\Temp\ccCV55PV.s 			page 3


  95              		.cfi_offset 3, -8
  96              		.cfi_offset 14, -4
  24:Core/Src/Code/StatPM.c ****  stat_reset ( );
  97              		.loc 1 24 2 view .LVU15
  98 0002 FFF7FEFF 		bl	stat_reset
  99              	.LVL9:
  25:Core/Src/Code/StatPM.c **** }
 100              		.loc 1 25 1 is_stmt 0 view .LVU16
 101 0006 08BD     		pop	{r3, pc}
 102              		.cfi_endproc
 103              	.LFE4:
 105              		.section	.text.Stat_Start_Call,"ax",%progbits
 106              		.align	1
 107              		.global	Stat_Start_Call
 108              		.syntax unified
 109              		.thumb
 110              		.thumb_func
 111              		.fpu softvfp
 113              	Stat_Start_Call:
 114              	.LFB5:
  26:Core/Src/Code/StatPM.c **** 
  27:Core/Src/Code/StatPM.c **** // Start Callibration
  28:Core/Src/Code/StatPM.c **** void Stat_Start_Call(void) {
 115              		.loc 1 28 28 is_stmt 1 view -0
 116              		.cfi_startproc
 117              		@ args = 0, pretend = 0, frame = 0
 118              		@ frame_needed = 0, uses_anonymous_args = 0
 119 0000 08B5     		push	{r3, lr}
 120              		.cfi_def_cfa_offset 8
 121              		.cfi_offset 3, -8
 122              		.cfi_offset 14, -4
  29:Core/Src/Code/StatPM.c ****  FW5_Calibration( );
 123              		.loc 1 29 2 view .LVU18
 124 0002 FFF7FEFF 		bl	FW5_Calibration
 125              	.LVL10:
  30:Core/Src/Code/StatPM.c **** }
 126              		.loc 1 30 1 is_stmt 0 view .LVU19
 127 0006 08BD     		pop	{r3, pc}
 128              		.cfi_endproc
 129              	.LFE5:
 131              		.section	.text.Stat_AddData250ms,"ax",%progbits
 132              		.align	1
 133              		.global	Stat_AddData250ms
 134              		.syntax unified
 135              		.thumb
 136              		.thumb_func
 137              		.fpu softvfp
 139              	Stat_AddData250ms:
 140              	.LVL11:
 141              	.LFB6:
  31:Core/Src/Code/StatPM.c **** 
  32:Core/Src/Code/StatPM.c **** // Add Data
  33:Core/Src/Code/StatPM.c **** void Stat_AddData250ms(int32_t Ni) {
 142              		.loc 1 33 36 is_stmt 1 view -0
 143              		.cfi_startproc
 144              		@ args = 0, pretend = 0, frame = 0
 145              		@ frame_needed = 0, uses_anonymous_args = 0
ARM GAS  C:\Users\user\AppData\Local\Temp\ccCV55PV.s 			page 4


 146              		.loc 1 33 36 is_stmt 0 view .LVU21
 147 0000 10B5     		push	{r4, lr}
 148              		.cfi_def_cfa_offset 8
 149              		.cfi_offset 4, -8
 150              		.cfi_offset 14, -4
 151 0002 0446     		mov	r4, r0
  34:Core/Src/Code/StatPM.c ****   //  Add Data
  35:Core/Src/Code/StatPM.c ****   stat_add((stat_pulses_t)Ni,(stat_time_t)TimeBase);
 152              		.loc 1 35 3 is_stmt 1 view .LVU22
 153 0004 44F62062 		movw	r2, #20000
 154 0008 0023     		movs	r3, #0
 155 000a FFF7FEFF 		bl	stat_add
 156              	.LVL12:
  36:Core/Src/Code/StatPM.c ****   stat_check(0x01);
 157              		.loc 1 36 3 view .LVU23
 158 000e 0120     		movs	r0, #1
 159 0010 FFF7FEFF 		bl	stat_check
 160              	.LVL13:
  37:Core/Src/Code/StatPM.c ****   // Find
  38:Core/Src/Code/StatPM.c ****   FW5_Write(Ni);
 161              		.loc 1 38 3 view .LVU24
 162 0014 2046     		mov	r0, r4
 163 0016 FFF7FEFF 		bl	FW5_Write
 164              	.LVL14:
  39:Core/Src/Code/StatPM.c ****   FW5_Read( );
 165              		.loc 1 39 3 view .LVU25
 166 001a FFF7FEFF 		bl	FW5_Read
 167              	.LVL15:
  40:Core/Src/Code/StatPM.c ****   FindChange = 1;
 168              		.loc 1 40 3 view .LVU26
 169              		.loc 1 40 14 is_stmt 0 view .LVU27
 170 001e 024B     		ldr	r3, .L9
 171 0020 0122     		movs	r2, #1
 172 0022 1A80     		strh	r2, [r3]	@ movhi
  41:Core/Src/Code/StatPM.c **** }
 173              		.loc 1 41 1 view .LVU28
 174 0024 10BD     		pop	{r4, pc}
 175              	.LVL16:
 176              	.L10:
 177              		.loc 1 41 1 view .LVU29
 178 0026 00BF     		.align	2
 179              	.L9:
 180 0028 00000000 		.word	.LANCHOR0
 181              		.cfi_endproc
 182              	.LFE6:
 184              		.section	.text.Stat_GetStatus,"ax",%progbits
 185              		.align	1
 186              		.global	Stat_GetStatus
 187              		.syntax unified
 188              		.thumb
 189              		.thumb_func
 190              		.fpu softvfp
 192              	Stat_GetStatus:
 193              	.LVL17:
 194              	.LFB7:
  42:Core/Src/Code/StatPM.c **** 
  43:Core/Src/Code/StatPM.c **** // Get Status
ARM GAS  C:\Users\user\AppData\Local\Temp\ccCV55PV.s 			page 5


  44:Core/Src/Code/StatPM.c **** void Stat_GetStatus(TStatus_Stat *Status) {
 195              		.loc 1 44 43 is_stmt 1 view -0
 196              		.cfi_startproc
 197              		@ args = 0, pretend = 0, frame = 8
 198              		@ frame_needed = 0, uses_anonymous_args = 0
 199              		.loc 1 44 43 is_stmt 0 view .LVU31
 200 0000 70B5     		push	{r4, r5, r6, lr}
 201              		.cfi_def_cfa_offset 16
 202              		.cfi_offset 4, -16
 203              		.cfi_offset 5, -12
 204              		.cfi_offset 6, -8
 205              		.cfi_offset 14, -4
 206 0002 82B0     		sub	sp, sp, #8
 207              		.cfi_def_cfa_offset 24
 208 0004 0446     		mov	r4, r0
  45:Core/Src/Code/StatPM.c **** 
  46:Core/Src/Code/StatPM.c ****    float Kmax;
 209              		.loc 1 46 4 is_stmt 1 view .LVU32
  47:Core/Src/Code/StatPM.c ****    uint16_t Temp=0;
 210              		.loc 1 47 4 view .LVU33
 211              		.loc 1 47 13 is_stmt 0 view .LVU34
 212 0006 0023     		movs	r3, #0
 213 0008 ADF80230 		strh	r3, [sp, #2]	@ movhi
  48:Core/Src/Code/StatPM.c **** 
  49:Core/Src/Code/StatPM.c ****    // Measure
  50:Core/Src/Code/StatPM.c ****    stat_calc_cps(&CPS,&Delta);
 214              		.loc 1 50 4 is_stmt 1 view .LVU35
 215 000c 194D     		ldr	r5, .L17
 216 000e 1A4E     		ldr	r6, .L17+4
 217 0010 2946     		mov	r1, r5
 218 0012 3046     		mov	r0, r6
 219              	.LVL18:
 220              		.loc 1 50 4 is_stmt 0 view .LVU36
 221 0014 FFF7FEFF 		bl	stat_calc_cps
 222              	.LVL19:
  51:Core/Src/Code/StatPM.c **** 
  52:Core/Src/Code/StatPM.c ****    Status->CPS   = CPS;
 223              		.loc 1 52 4 is_stmt 1 view .LVU37
 224              		.loc 1 52 18 is_stmt 0 view .LVU38
 225 0018 3368     		ldr	r3, [r6]	@ float
 226 001a 6360     		str	r3, [r4, #4]	@ float
  53:Core/Src/Code/StatPM.c ****    Status->Delta = Delta;
 227              		.loc 1 53 4 is_stmt 1 view .LVU39
 228              		.loc 1 53 18 is_stmt 0 view .LVU40
 229 001c 2B78     		ldrb	r3, [r5]	@ zero_extendqisi2
 230 001e 2372     		strb	r3, [r4, #8]
  54:Core/Src/Code/StatPM.c **** 
  55:Core/Src/Code/StatPM.c ****    // Find
  56:Core/Src/Code/StatPM.c ****    if  (FindChange==1) {
 231              		.loc 1 56 4 is_stmt 1 view .LVU41
 232              		.loc 1 56 19 is_stmt 0 view .LVU42
 233 0020 164B     		ldr	r3, .L17+8
 234 0022 1B88     		ldrh	r3, [r3]
 235              		.loc 1 56 8 view .LVU43
 236 0024 012B     		cmp	r3, #1
 237 0026 01D0     		beq	.L16
 238              	.L11:
ARM GAS  C:\Users\user\AppData\Local\Temp\ccCV55PV.s 			page 6


  57:Core/Src/Code/StatPM.c ****           FindChange=0;
  58:Core/Src/Code/StatPM.c ****           if (FW5_G5Find(&Temp,&Kmax)) {
  59:Core/Src/Code/StatPM.c ****              Status->Status &=~St_Call;
  60:Core/Src/Code/StatPM.c ****              if (Temp>0) {
  61:Core/Src/Code/StatPM.c ****                   Status->Status |= St_Alarm;
  62:Core/Src/Code/StatPM.c ****                   Status->nSigm   = Kmax;
  63:Core/Src/Code/StatPM.c ****              } else {
  64:Core/Src/Code/StatPM.c ****                  Status->Status &=  ~St_Alarm;
  65:Core/Src/Code/StatPM.c ****                  Status->nSigm = 0;
  66:Core/Src/Code/StatPM.c ****                }
  67:Core/Src/Code/StatPM.c ****           } else Status->Status |=St_Call;;
  68:Core/Src/Code/StatPM.c ****    }
  69:Core/Src/Code/StatPM.c **** 
  70:Core/Src/Code/StatPM.c **** }
 239              		.loc 1 70 1 view .LVU44
 240 0028 02B0     		add	sp, sp, #8
 241              		.cfi_remember_state
 242              		.cfi_def_cfa_offset 16
 243              		@ sp needed
 244 002a 70BD     		pop	{r4, r5, r6, pc}
 245              	.LVL20:
 246              	.L16:
 247              		.cfi_restore_state
  57:Core/Src/Code/StatPM.c ****           FindChange=0;
 248              		.loc 1 57 11 is_stmt 1 view .LVU45
  57:Core/Src/Code/StatPM.c ****           FindChange=0;
 249              		.loc 1 57 21 is_stmt 0 view .LVU46
 250 002c 134B     		ldr	r3, .L17+8
 251 002e 0022     		movs	r2, #0
 252 0030 1A80     		strh	r2, [r3]	@ movhi
  58:Core/Src/Code/StatPM.c ****              Status->Status &=~St_Call;
 253              		.loc 1 58 11 is_stmt 1 view .LVU47
  58:Core/Src/Code/StatPM.c ****              Status->Status &=~St_Call;
 254              		.loc 1 58 15 is_stmt 0 view .LVU48
 255 0032 01A9     		add	r1, sp, #4
 256 0034 0DF10200 		add	r0, sp, #2
 257 0038 FFF7FEFF 		bl	FW5_G5Find
 258              	.LVL21:
  58:Core/Src/Code/StatPM.c ****              Status->Status &=~St_Call;
 259              		.loc 1 58 14 view .LVU49
 260 003c A0B1     		cbz	r0, .L13
  59:Core/Src/Code/StatPM.c ****              if (Temp>0) {
 261              		.loc 1 59 14 is_stmt 1 view .LVU50
  59:Core/Src/Code/StatPM.c ****              if (Temp>0) {
 262              		.loc 1 59 29 is_stmt 0 view .LVU51
 263 003e 2378     		ldrb	r3, [r4]	@ zero_extendqisi2
 264 0040 03F0FD03 		and	r3, r3, #253
 265 0044 2370     		strb	r3, [r4]
  60:Core/Src/Code/StatPM.c ****                   Status->Status |= St_Alarm;
 266              		.loc 1 60 14 is_stmt 1 view .LVU52
  60:Core/Src/Code/StatPM.c ****                   Status->Status |= St_Alarm;
 267              		.loc 1 60 22 is_stmt 0 view .LVU53
 268 0046 BDF80220 		ldrh	r2, [sp, #2]
  60:Core/Src/Code/StatPM.c ****                   Status->Status |= St_Alarm;
 269              		.loc 1 60 17 view .LVU54
 270 004a 3AB1     		cbz	r2, .L14
  61:Core/Src/Code/StatPM.c ****                   Status->nSigm   = Kmax;
ARM GAS  C:\Users\user\AppData\Local\Temp\ccCV55PV.s 			page 7


 271              		.loc 1 61 19 is_stmt 1 view .LVU55
  61:Core/Src/Code/StatPM.c ****                   Status->nSigm   = Kmax;
 272              		.loc 1 61 34 is_stmt 0 view .LVU56
 273 004c 43F00103 		orr	r3, r3, #1
 274 0050 2370     		strb	r3, [r4]
  62:Core/Src/Code/StatPM.c ****              } else {
 275              		.loc 1 62 19 is_stmt 1 view .LVU57
  62:Core/Src/Code/StatPM.c ****              } else {
 276              		.loc 1 62 35 is_stmt 0 view .LVU58
 277 0052 0198     		ldr	r0, [sp, #4]	@ float
 278 0054 FFF7FEFF 		bl	__aeabi_f2uiz
 279              	.LVL22:
 280 0058 6070     		strb	r0, [r4, #1]
 281 005a E5E7     		b	.L11
 282              	.L14:
  64:Core/Src/Code/StatPM.c ****                  Status->nSigm = 0;
 283              		.loc 1 64 18 is_stmt 1 view .LVU59
  64:Core/Src/Code/StatPM.c ****                  Status->nSigm = 0;
 284              		.loc 1 64 33 is_stmt 0 view .LVU60
 285 005c 23F00103 		bic	r3, r3, #1
 286 0060 2370     		strb	r3, [r4]
  65:Core/Src/Code/StatPM.c ****                }
 287              		.loc 1 65 18 is_stmt 1 view .LVU61
  65:Core/Src/Code/StatPM.c ****                }
 288              		.loc 1 65 32 is_stmt 0 view .LVU62
 289 0062 0023     		movs	r3, #0
 290 0064 6370     		strb	r3, [r4, #1]
 291 0066 DFE7     		b	.L11
 292              	.L13:
  67:Core/Src/Code/StatPM.c ****    }
 293              		.loc 1 67 18 is_stmt 1 view .LVU63
  67:Core/Src/Code/StatPM.c ****    }
 294              		.loc 1 67 33 is_stmt 0 view .LVU64
 295 0068 2378     		ldrb	r3, [r4]	@ zero_extendqisi2
 296 006a 43F00203 		orr	r3, r3, #2
 297 006e 2370     		strb	r3, [r4]
  67:Core/Src/Code/StatPM.c ****    }
 298              		.loc 1 67 43 is_stmt 1 view .LVU65
 299              		.loc 1 70 1 is_stmt 0 view .LVU66
 300 0070 DAE7     		b	.L11
 301              	.L18:
 302 0072 00BF     		.align	2
 303              	.L17:
 304 0074 00000000 		.word	.LANCHOR1
 305 0078 00000000 		.word	.LANCHOR2
 306 007c 00000000 		.word	.LANCHOR0
 307              		.cfi_endproc
 308              	.LFE7:
 310              		.global	FindChange
 311              		.section	.bss.CPS,"aw",%nobits
 312              		.align	2
 313              		.set	.LANCHOR2,. + 0
 316              	CPS:
 317 0000 00000000 		.space	4
 318              		.section	.bss.Delta,"aw",%nobits
 319              		.set	.LANCHOR1,. + 0
 322              	Delta:
ARM GAS  C:\Users\user\AppData\Local\Temp\ccCV55PV.s 			page 8


 323 0000 00       		.space	1
 324              		.section	.bss.FindChange,"aw",%nobits
 325              		.align	1
 326              		.set	.LANCHOR0,. + 0
 329              	FindChange:
 330 0000 0000     		.space	2
 331              		.text
 332              	.Letext0:
 333              		.file 2 "c:\\users\\user\\appdata\\roaming\\code\\user\\globalstorage\\bmd.stm32-for-vscode\\@xpac
 334              		.file 3 "c:\\users\\user\\appdata\\roaming\\code\\user\\globalstorage\\bmd.stm32-for-vscode\\@xpac
 335              		.file 4 "Core/Src/Code/StatPM.h"
 336              		.file 5 "Core/Src/Code/stat.h"
 337              		.file 6 "Core/Src/Code/FindX.h"
ARM GAS  C:\Users\user\AppData\Local\Temp\ccCV55PV.s 			page 9

